
AL9000_dmac.elf:     file format elf64-littleriscv


Disassembly of section .init:

0000000061000000 <vector_base>:
    61000000:	6f 00 00 1b 00 00 00 00 b2 03 00 61 00 00 00 00     o..........a....
    61000010:	b2 03 00 61 00 00 00 00 00 00 00 00 00 00 00 00     ...a............
    61000020:	b2 03 00 61 00 00 00 00 b2 03 00 61 00 00 00 00     ...a.......a....
    61000030:	b2 03 00 61 00 00 00 00 00 00 00 00 00 00 00 00     ...a............
    61000040:	b2 03 00 61 00 00 00 00 b2 03 00 61 00 00 00 00     ...a.......a....
    61000050:	b2 03 00 61 00 00 00 00 b2 03 00 61 00 00 00 00     ...a.......a....
    61000060:	b2 03 00 61 00 00 00 00 b2 03 00 61 00 00 00 00     ...a.......a....
    61000070:	b2 03 00 61 00 00 00 00 b2 03 00 61 00 00 00 00     ...a.......a....
    61000080:	b2 03 00 61 00 00 00 00 b2 03 00 61 00 00 00 00     ...a.......a....
    61000090:	b2 03 00 61 00 00 00 00 00 00 00 00 00 00 00 00     ...a............
	...

00000000610001b0 <_start>:
    610001b0:	30047073          	csrci	mstatus,8
    610001b4:	00010197          	auipc	gp,0x10
    610001b8:	6fc18193          	addi	gp,gp,1788 # 610108b0 <__global_pointer$>
    610001bc:	00020117          	auipc	sp,0x20
    610001c0:	e4410113          	addi	sp,sp,-444 # 61020000 <_sp>
    610001c4:	20000293          	li	t0,512
    610001c8:	7d02a073          	csrs	mmisc_ctl,t0
    610001cc:	00000297          	auipc	t0,0x0
    610001d0:	e3428293          	addi	t0,t0,-460 # 61000000 <vector_base>
    610001d4:	30729073          	csrw	mtvt,t0
    610001d8:	00000297          	auipc	t0,0x0
    610001dc:	16828293          	addi	t0,t0,360 # 61000340 <irq_entry>
    610001e0:	7ec29073          	csrw	mtvt2,t0
    610001e4:	7ec0e073          	csrsi	mtvt2,1
    610001e8:	00000297          	auipc	t0,0x0
    610001ec:	0d828293          	addi	t0,t0,216 # 610002c0 <exc_entry>
    610001f0:	30529073          	csrw	mtvec,t0
    610001f4:	03f00293          	li	t0,63
    610001f8:	3052b073          	csrc	mtvec,t0
    610001fc:	3051e073          	csrsi	mtvec,3
    61000200:	6299                	lui	t0,0x6
    61000202:	3002a073          	csrs	mstatus,t0
    61000206:	00301073          	fscsr	zero
    6100020a:	3202f073          	csrci	mcountinhibit,5
    6100020e:	00000517          	auipc	a0,0x0
    61000212:	09e50513          	addi	a0,a0,158 # 610002ac <_ilm>
    61000216:	00000597          	auipc	a1,0x0
    6100021a:	09658593          	addi	a1,a1,150 # 610002ac <_ilm>
    6100021e:	02b50063          	beq	a0,a1,6100023e <_start+0x8e>
    61000222:	00004617          	auipc	a2,0x4
    61000226:	51a60613          	addi	a2,a2,1306 # 6100473c <__fsymtab_end>
    6100022a:	00c5fa63          	bgeu	a1,a2,6100023e <_start+0x8e>
    6100022e:	00052283          	lw	t0,0(a0)
    61000232:	0055a023          	sw	t0,0(a1)
    61000236:	0511                	addi	a0,a0,4
    61000238:	0591                	addi	a1,a1,4
    6100023a:	fec5eae3          	bltu	a1,a2,6100022e <_start+0x7e>
    6100023e:	00004517          	auipc	a0,0x4
    61000242:	4fe50513          	addi	a0,a0,1278 # 6100473c <__fsymtab_end>
    61000246:	00010597          	auipc	a1,0x10
    6100024a:	dba58593          	addi	a1,a1,-582 # 61010000 <impure_data>
    6100024e:	00010617          	auipc	a2,0x10
    61000252:	e8260613          	addi	a2,a2,-382 # 610100d0 <amount0>
    61000256:	00c5fa63          	bgeu	a1,a2,6100026a <_start+0xba>
    6100025a:	00052283          	lw	t0,0(a0)
    6100025e:	0055a023          	sw	t0,0(a1)
    61000262:	0511                	addi	a0,a0,4
    61000264:	0591                	addi	a1,a1,4
    61000266:	fec5eae3          	bltu	a1,a2,6100025a <_start+0xaa>
    6100026a:	00010517          	auipc	a0,0x10
    6100026e:	e6650513          	addi	a0,a0,-410 # 610100d0 <amount0>
    61000272:	a0818593          	addi	a1,gp,-1528 # 610102b8 <_end>
    61000276:	00b57763          	bgeu	a0,a1,61000284 <_start+0xd4>
    6100027a:	00052023          	sw	zero,0(a0)
    6100027e:	0511                	addi	a0,a0,4
    61000280:	feb56de3          	bltu	a0,a1,6100027a <_start+0xca>
    61000284:	142020ef          	jal	ra,610023c6 <SystemInit>
    61000288:	00003517          	auipc	a0,0x3
    6100028c:	ae050513          	addi	a0,a0,-1312 # 61002d68 <__libc_fini_array>
    61000290:	2cf020ef          	jal	ra,61002d5e <atexit>
    61000294:	30b020ef          	jal	ra,61002d9e <__libc_init_array>
    61000298:	3aa020ef          	jal	ra,61002642 <_premain_init>
    6100029c:	4501                	li	a0,0
    6100029e:	4581                	li	a1,0
    610002a0:	1a9020ef          	jal	ra,61002c48 <main>
    610002a4:	3d8020ef          	jal	ra,6100267c <_postmain_fini>
    610002a8:	a001                	j	610002a8 <_start+0xf8>

Disassembly of section .text:

00000000610002c0 <exc_entry>:
    610002c0:	7135                	addi	sp,sp,-160
    610002c2:	e006                	sd	ra,0(sp)
    610002c4:	e412                	sd	tp,8(sp)
    610002c6:	e816                	sd	t0,16(sp)
    610002c8:	ec1a                	sd	t1,24(sp)
    610002ca:	f01e                	sd	t2,32(sp)
    610002cc:	f42a                	sd	a0,40(sp)
    610002ce:	f82e                	sd	a1,48(sp)
    610002d0:	fc32                	sd	a2,56(sp)
    610002d2:	e0b6                	sd	a3,64(sp)
    610002d4:	e4ba                	sd	a4,72(sp)
    610002d6:	e8be                	sd	a5,80(sp)
    610002d8:	f8c2                	sd	a6,112(sp)
    610002da:	fcc6                	sd	a7,120(sp)
    610002dc:	e172                	sd	t3,128(sp)
    610002de:	e576                	sd	t4,136(sp)
    610002e0:	e97a                	sd	t5,144(sp)
    610002e2:	ed7e                	sd	t6,152(sp)
    610002e4:	7ee5d073          	csrwi	pushmcause,11
    610002e8:	7ef65073          	csrwi	pushmepc,12
    610002ec:	7eb6d073          	csrwi	pushmsubm,13
    610002f0:	34202573          	csrr	a0,mcause
    610002f4:	858a                	mv	a1,sp
    610002f6:	19c020ef          	jal	ra,61002492 <core_exception_handler>
    610002fa:	72a6                	ld	t0,104(sp)
    610002fc:	7c429073          	csrw	msubm,t0
    61000300:	7286                	ld	t0,96(sp)
    61000302:	34129073          	csrw	mepc,t0
    61000306:	62e6                	ld	t0,88(sp)
    61000308:	34229073          	csrw	mcause,t0
    6100030c:	6082                	ld	ra,0(sp)
    6100030e:	6222                	ld	tp,8(sp)
    61000310:	62c2                	ld	t0,16(sp)
    61000312:	6362                	ld	t1,24(sp)
    61000314:	7382                	ld	t2,32(sp)
    61000316:	7522                	ld	a0,40(sp)
    61000318:	75c2                	ld	a1,48(sp)
    6100031a:	7662                	ld	a2,56(sp)
    6100031c:	6686                	ld	a3,64(sp)
    6100031e:	6726                	ld	a4,72(sp)
    61000320:	67c6                	ld	a5,80(sp)
    61000322:	7846                	ld	a6,112(sp)
    61000324:	78e6                	ld	a7,120(sp)
    61000326:	6e0a                	ld	t3,128(sp)
    61000328:	6eaa                	ld	t4,136(sp)
    6100032a:	6f4a                	ld	t5,144(sp)
    6100032c:	6fea                	ld	t6,152(sp)
    6100032e:	610d                	addi	sp,sp,160
    61000330:	30200073          	mret
	...

0000000061000340 <irq_entry>:
    61000340:	7135                	addi	sp,sp,-160
    61000342:	e006                	sd	ra,0(sp)
    61000344:	e412                	sd	tp,8(sp)
    61000346:	e816                	sd	t0,16(sp)
    61000348:	ec1a                	sd	t1,24(sp)
    6100034a:	f01e                	sd	t2,32(sp)
    6100034c:	f42a                	sd	a0,40(sp)
    6100034e:	f82e                	sd	a1,48(sp)
    61000350:	fc32                	sd	a2,56(sp)
    61000352:	e0b6                	sd	a3,64(sp)
    61000354:	e4ba                	sd	a4,72(sp)
    61000356:	e8be                	sd	a5,80(sp)
    61000358:	f8c2                	sd	a6,112(sp)
    6100035a:	fcc6                	sd	a7,120(sp)
    6100035c:	e172                	sd	t3,128(sp)
    6100035e:	e576                	sd	t4,136(sp)
    61000360:	e97a                	sd	t5,144(sp)
    61000362:	ed7e                	sd	t6,152(sp)
    61000364:	7ee5d073          	csrwi	pushmcause,11
    61000368:	7ef65073          	csrwi	pushmepc,12
    6100036c:	7eb6d073          	csrwi	pushmsubm,13
    61000370:	7ed090f3          	csrrw	ra,jalmnxti,ra
    61000374:	30047073          	csrci	mstatus,8
    61000378:	72a6                	ld	t0,104(sp)
    6100037a:	7c429073          	csrw	msubm,t0
    6100037e:	7286                	ld	t0,96(sp)
    61000380:	34129073          	csrw	mepc,t0
    61000384:	62e6                	ld	t0,88(sp)
    61000386:	34229073          	csrw	mcause,t0
    6100038a:	6082                	ld	ra,0(sp)
    6100038c:	6222                	ld	tp,8(sp)
    6100038e:	62c2                	ld	t0,16(sp)
    61000390:	6362                	ld	t1,24(sp)
    61000392:	7382                	ld	t2,32(sp)
    61000394:	7522                	ld	a0,40(sp)
    61000396:	75c2                	ld	a1,48(sp)
    61000398:	7662                	ld	a2,56(sp)
    6100039a:	6686                	ld	a3,64(sp)
    6100039c:	6726                	ld	a4,72(sp)
    6100039e:	67c6                	ld	a5,80(sp)
    610003a0:	7846                	ld	a6,112(sp)
    610003a2:	78e6                	ld	a7,120(sp)
    610003a4:	6e0a                	ld	t3,128(sp)
    610003a6:	6eaa                	ld	t4,136(sp)
    610003a8:	6f4a                	ld	t5,144(sp)
    610003aa:	6fea                	ld	t6,152(sp)
    610003ac:	610d                	addi	sp,sp,160
    610003ae:	30200073          	mret

00000000610003b2 <default_intexc_handler>:
    610003b2:	a001                	j	610003b2 <default_intexc_handler>
	...

00000000610003b6 <dw_dmac_enable>:
    610003b6:	1101                	addi	sp,sp,-32
    610003b8:	ec22                	sd	s0,24(sp)
    610003ba:	1000                	addi	s0,sp,32
    610003bc:	fea43423          	sd	a0,-24(s0)
    610003c0:	fe843783          	ld	a5,-24(s0)
    610003c4:	0d87a783          	lw	a5,216(a5)
    610003c8:	2781                	sext.w	a5,a5
    610003ca:	0017e793          	ori	a5,a5,1
    610003ce:	0007871b          	sext.w	a4,a5
    610003d2:	fe843783          	ld	a5,-24(s0)
    610003d6:	0ce7ac23          	sw	a4,216(a5)
    610003da:	0001                	nop
    610003dc:	6462                	ld	s0,24(sp)
    610003de:	6105                	addi	sp,sp,32
    610003e0:	8082                	ret

00000000610003e2 <dw_dmac_disable>:
    610003e2:	7179                	addi	sp,sp,-48
    610003e4:	f422                	sd	s0,40(sp)
    610003e6:	1800                	addi	s0,sp,48
    610003e8:	fca43c23          	sd	a0,-40(s0)
    610003ec:	4785                	li	a5,1
    610003ee:	fef42623          	sw	a5,-20(s0)
    610003f2:	fd843783          	ld	a5,-40(s0)
    610003f6:	0d87a783          	lw	a5,216(a5)
    610003fa:	2781                	sext.w	a5,a5
    610003fc:	9bf9                	andi	a5,a5,-2
    610003fe:	0007871b          	sext.w	a4,a5
    61000402:	fd843783          	ld	a5,-40(s0)
    61000406:	0ce7ac23          	sw	a4,216(a5)
    6100040a:	fec42783          	lw	a5,-20(s0)
    6100040e:	853e                	mv	a0,a5
    61000410:	7422                	ld	s0,40(sp)
    61000412:	6145                	addi	sp,sp,48
    61000414:	8082                	ret

0000000061000416 <dw_dmac_enableChannel>:
    61000416:	7179                	addi	sp,sp,-48
    61000418:	f422                	sd	s0,40(sp)
    6100041a:	1800                	addi	s0,sp,48
    6100041c:	fca43c23          	sd	a0,-40(s0)
    61000420:	87ae                	mv	a5,a1
    61000422:	fcf42a23          	sw	a5,-44(s0)
    61000426:	4785                	li	a5,1
    61000428:	fef42623          	sw	a5,-20(s0)
    6100042c:	fec42783          	lw	a5,-20(s0)
    61000430:	0007871b          	sext.w	a4,a5
    61000434:	4785                	li	a5,1
    61000436:	14f71b63          	bne	a4,a5,6100058c <dw_dmac_enableChannel+0x176>
    6100043a:	fd442783          	lw	a5,-44(s0)
    6100043e:	fef42423          	sw	a5,-24(s0)
    61000442:	fe842783          	lw	a5,-24(s0)
    61000446:	0007871b          	sext.w	a4,a5
    6100044a:	479d                	li	a5,7
    6100044c:	12e7e263          	bltu	a5,a4,61000570 <dw_dmac_enableChannel+0x15a>
    61000450:	fe846783          	lwu	a5,-24(s0)
    61000454:	00279713          	slli	a4,a5,0x2
    61000458:	00004797          	auipc	a5,0x4
    6100045c:	ed078793          	addi	a5,a5,-304 # 61004328 <_read_r+0x36>
    61000460:	97ba                	add	a5,a5,a4
    61000462:	439c                	lw	a5,0(a5)
    61000464:	0007871b          	sext.w	a4,a5
    61000468:	00004797          	auipc	a5,0x4
    6100046c:	ec078793          	addi	a5,a5,-320 # 61004328 <_read_r+0x36>
    61000470:	97ba                	add	a5,a5,a4
    61000472:	8782                	jr	a5
    61000474:	fd843783          	ld	a5,-40(s0)
    61000478:	0e07a783          	lw	a5,224(a5)
    6100047c:	2781                	sext.w	a5,a5
    6100047e:	1017e793          	ori	a5,a5,257
    61000482:	0007871b          	sext.w	a4,a5
    61000486:	fd843783          	ld	a5,-40(s0)
    6100048a:	0ee7a023          	sw	a4,224(a5)
    6100048e:	a201                	j	6100058e <dw_dmac_enableChannel+0x178>
    61000490:	fd843783          	ld	a5,-40(s0)
    61000494:	0e07a783          	lw	a5,224(a5)
    61000498:	2781                	sext.w	a5,a5
    6100049a:	2027e793          	ori	a5,a5,514
    6100049e:	0007871b          	sext.w	a4,a5
    610004a2:	fd843783          	ld	a5,-40(s0)
    610004a6:	0ee7a023          	sw	a4,224(a5)
    610004aa:	a0d5                	j	6100058e <dw_dmac_enableChannel+0x178>
    610004ac:	fd843783          	ld	a5,-40(s0)
    610004b0:	0e07a783          	lw	a5,224(a5)
    610004b4:	2781                	sext.w	a5,a5
    610004b6:	4047e793          	ori	a5,a5,1028
    610004ba:	0007871b          	sext.w	a4,a5
    610004be:	fd843783          	ld	a5,-40(s0)
    610004c2:	0ee7a023          	sw	a4,224(a5)
    610004c6:	a0e1                	j	6100058e <dw_dmac_enableChannel+0x178>
    610004c8:	fd843783          	ld	a5,-40(s0)
    610004cc:	0e07a783          	lw	a5,224(a5)
    610004d0:	2781                	sext.w	a5,a5
    610004d2:	873e                	mv	a4,a5
    610004d4:	6785                	lui	a5,0x1
    610004d6:	80878793          	addi	a5,a5,-2040 # 808 <__stack_size+0x8>
    610004da:	8fd9                	or	a5,a5,a4
    610004dc:	0007871b          	sext.w	a4,a5
    610004e0:	fd843783          	ld	a5,-40(s0)
    610004e4:	0ee7a023          	sw	a4,224(a5)
    610004e8:	a05d                	j	6100058e <dw_dmac_enableChannel+0x178>
    610004ea:	fd843783          	ld	a5,-40(s0)
    610004ee:	0e07a783          	lw	a5,224(a5)
    610004f2:	2781                	sext.w	a5,a5
    610004f4:	873e                	mv	a4,a5
    610004f6:	6785                	lui	a5,0x1
    610004f8:	07c1                	addi	a5,a5,16
    610004fa:	8fd9                	or	a5,a5,a4
    610004fc:	0007871b          	sext.w	a4,a5
    61000500:	fd843783          	ld	a5,-40(s0)
    61000504:	0ee7a023          	sw	a4,224(a5) # 10e0 <__stack_size+0x8e0>
    61000508:	a059                	j	6100058e <dw_dmac_enableChannel+0x178>
    6100050a:	fd843783          	ld	a5,-40(s0)
    6100050e:	0e07a783          	lw	a5,224(a5)
    61000512:	2781                	sext.w	a5,a5
    61000514:	873e                	mv	a4,a5
    61000516:	6789                	lui	a5,0x2
    61000518:	02078793          	addi	a5,a5,32 # 2020 <__stack_size+0x1820>
    6100051c:	8fd9                	or	a5,a5,a4
    6100051e:	0007871b          	sext.w	a4,a5
    61000522:	fd843783          	ld	a5,-40(s0)
    61000526:	0ee7a023          	sw	a4,224(a5)
    6100052a:	a095                	j	6100058e <dw_dmac_enableChannel+0x178>
    6100052c:	fd843783          	ld	a5,-40(s0)
    61000530:	0e07a783          	lw	a5,224(a5)
    61000534:	2781                	sext.w	a5,a5
    61000536:	873e                	mv	a4,a5
    61000538:	6791                	lui	a5,0x4
    6100053a:	04078793          	addi	a5,a5,64 # 4040 <__stack_size+0x3840>
    6100053e:	8fd9                	or	a5,a5,a4
    61000540:	0007871b          	sext.w	a4,a5
    61000544:	fd843783          	ld	a5,-40(s0)
    61000548:	0ee7a023          	sw	a4,224(a5)
    6100054c:	a089                	j	6100058e <dw_dmac_enableChannel+0x178>
    6100054e:	fd843783          	ld	a5,-40(s0)
    61000552:	0e07a783          	lw	a5,224(a5)
    61000556:	2781                	sext.w	a5,a5
    61000558:	873e                	mv	a4,a5
    6100055a:	67a1                	lui	a5,0x8
    6100055c:	08078793          	addi	a5,a5,128 # 8080 <__stack_size+0x7880>
    61000560:	8fd9                	or	a5,a5,a4
    61000562:	0007871b          	sext.w	a4,a5
    61000566:	fd843783          	ld	a5,-40(s0)
    6100056a:	0ee7a023          	sw	a4,224(a5)
    6100056e:	a005                	j	6100058e <dw_dmac_enableChannel+0x178>
    61000570:	fd843783          	ld	a5,-40(s0)
    61000574:	0e07a783          	lw	a5,224(a5)
    61000578:	2781                	sext.w	a5,a5
    6100057a:	1017e793          	ori	a5,a5,257
    6100057e:	0007871b          	sext.w	a4,a5
    61000582:	fd843783          	ld	a5,-40(s0)
    61000586:	0ee7a023          	sw	a4,224(a5)
    6100058a:	a011                	j	6100058e <dw_dmac_enableChannel+0x178>
    6100058c:	0001                	nop
    6100058e:	fec42783          	lw	a5,-20(s0)
    61000592:	853e                	mv	a0,a5
    61000594:	7422                	ld	s0,40(sp)
    61000596:	6145                	addi	sp,sp,48
    61000598:	8082                	ret

000000006100059a <dw_dmac_disableChannel>:
    6100059a:	7179                	addi	sp,sp,-48
    6100059c:	f422                	sd	s0,40(sp)
    6100059e:	1800                	addi	s0,sp,48
    610005a0:	fca43c23          	sd	a0,-40(s0)
    610005a4:	87ae                	mv	a5,a1
    610005a6:	fcf42a23          	sw	a5,-44(s0)
    610005aa:	fe041723          	sh	zero,-18(s0)
    610005ae:	fd843783          	ld	a5,-40(s0)
    610005b2:	0e07a783          	lw	a5,224(a5)
    610005b6:	2781                	sext.w	a5,a5
    610005b8:	fef41723          	sh	a5,-18(s0)
    610005bc:	fd843783          	ld	a5,-40(s0)
    610005c0:	0e07a783          	lw	a5,224(a5)
    610005c4:	2781                	sext.w	a5,a5
    610005c6:	873e                	mv	a4,a5
    610005c8:	77c1                	lui	a5,0xffff0
    610005ca:	8ff9                	and	a5,a5,a4
    610005cc:	0007871b          	sext.w	a4,a5
    610005d0:	fd843783          	ld	a5,-40(s0)
    610005d4:	0ee7a023          	sw	a4,224(a5) # ffffffffffff00e0 <_sp+0xffffffff9efd00e0>
    610005d8:	fee45783          	lhu	a5,-18(s0)
    610005dc:	2781                	sext.w	a5,a5
    610005de:	853e                	mv	a0,a5
    610005e0:	7422                	ld	s0,40(sp)
    610005e2:	6145                	addi	sp,sp,48
    610005e4:	8082                	ret

00000000610005e6 <dw_dmac_setAddress>:
    610005e6:	7179                	addi	sp,sp,-48
    610005e8:	f422                	sd	s0,40(sp)
    610005ea:	1800                	addi	s0,sp,48
    610005ec:	fca43c23          	sd	a0,-40(s0)
    610005f0:	87ae                	mv	a5,a1
    610005f2:	8732                	mv	a4,a2
    610005f4:	fcf42a23          	sw	a5,-44(s0)
    610005f8:	87ba                	mv	a5,a4
    610005fa:	fcf42823          	sw	a5,-48(s0)
    610005fe:	4785                	li	a5,1
    61000600:	fef42623          	sw	a5,-20(s0)
    61000604:	fd442783          	lw	a5,-44(s0)
    61000608:	2781                	sext.w	a5,a5
    6100060a:	cb81                	beqz	a5,6100061a <dw_dmac_setAddress+0x34>
    6100060c:	fd442783          	lw	a5,-44(s0)
    61000610:	0007871b          	sext.w	a4,a5
    61000614:	4789                	li	a5,2
    61000616:	00f71763          	bne	a4,a5,61000624 <dw_dmac_setAddress+0x3e>
    6100061a:	fd843783          	ld	a5,-40(s0)
    6100061e:	fd042703          	lw	a4,-48(s0)
    61000622:	c398                	sw	a4,0(a5)
    61000624:	fd442783          	lw	a5,-44(s0)
    61000628:	0007871b          	sext.w	a4,a5
    6100062c:	4785                	li	a5,1
    6100062e:	00f70963          	beq	a4,a5,61000640 <dw_dmac_setAddress+0x5a>
    61000632:	fd442783          	lw	a5,-44(s0)
    61000636:	0007871b          	sext.w	a4,a5
    6100063a:	4789                	li	a5,2
    6100063c:	00f71763          	bne	a4,a5,6100064a <dw_dmac_setAddress+0x64>
    61000640:	fd843783          	ld	a5,-40(s0)
    61000644:	fd042703          	lw	a4,-48(s0)
    61000648:	c798                	sw	a4,8(a5)
    6100064a:	fec42783          	lw	a5,-20(s0)
    6100064e:	853e                	mv	a0,a5
    61000650:	7422                	ld	s0,40(sp)
    61000652:	6145                	addi	sp,sp,48
    61000654:	8082                	ret

0000000061000656 <dw_dmac_setChannelConfig>:
    61000656:	1101                	addi	sp,sp,-32
    61000658:	ec22                	sd	s0,24(sp)
    6100065a:	1000                	addi	s0,sp,32
    6100065c:	fea43423          	sd	a0,-24(s0)
    61000660:	fe843783          	ld	a5,-24(s0)
    61000664:	4f98                	lw	a4,24(a5)
    61000666:	00176713          	ori	a4,a4,1
    6100066a:	cf98                	sw	a4,24(a5)
    6100066c:	fe843783          	ld	a5,-24(s0)
    61000670:	4f98                	lw	a4,24(a5)
    61000672:	9b45                	andi	a4,a4,-15
    61000674:	cf98                	sw	a4,24(a5)
    61000676:	fe843783          	ld	a5,-24(s0)
    6100067a:	4f98                	lw	a4,24(a5)
    6100067c:	f8f77713          	andi	a4,a4,-113
    61000680:	cf98                	sw	a4,24(a5)
    61000682:	fe843783          	ld	a5,-24(s0)
    61000686:	4f94                	lw	a3,24(a5)
    61000688:	f0000737          	lui	a4,0xf0000
    6100068c:	177d                	addi	a4,a4,-1
    6100068e:	8f75                	and	a4,a4,a3
    61000690:	cf98                	sw	a4,24(a5)
    61000692:	fe843783          	ld	a5,-24(s0)
    61000696:	4f94                	lw	a3,24(a5)
    61000698:	f8000737          	lui	a4,0xf8000
    6100069c:	177d                	addi	a4,a4,-1
    6100069e:	8f75                	and	a4,a4,a3
    610006a0:	cf98                	sw	a4,24(a5)
    610006a2:	fe843783          	ld	a5,-24(s0)
    610006a6:	4f98                	lw	a4,24(a5)
    610006a8:	e7f77713          	andi	a4,a4,-385
    610006ac:	cf98                	sw	a4,24(a5)
    610006ae:	fe843783          	ld	a5,-24(s0)
    610006b2:	4f98                	lw	a4,24(a5)
    610006b4:	9ff77713          	andi	a4,a4,-1537
    610006b8:	cf98                	sw	a4,24(a5)
    610006ba:	fe843783          	ld	a5,-24(s0)
    610006be:	4f94                	lw	a3,24(a5)
    610006c0:	7771                	lui	a4,0xffffc
    610006c2:	7ff70713          	addi	a4,a4,2047 # ffffffffffffc7ff <_sp+0xffffffff9efdc7ff>
    610006c6:	8f75                	and	a4,a4,a3
    610006c8:	cf98                	sw	a4,24(a5)
    610006ca:	fe843783          	ld	a5,-24(s0)
    610006ce:	4f94                	lw	a3,24(a5)
    610006d0:	7711                	lui	a4,0xfffe4
    610006d2:	177d                	addi	a4,a4,-1
    610006d4:	8f75                	and	a4,a4,a3
    610006d6:	cf98                	sw	a4,24(a5)
    610006d8:	fe843783          	ld	a5,-24(s0)
    610006dc:	4f94                	lw	a3,24(a5)
    610006de:	7701                	lui	a4,0xfffe0
    610006e0:	177d                	addi	a4,a4,-1
    610006e2:	8f75                	and	a4,a4,a3
    610006e4:	cf98                	sw	a4,24(a5)
    610006e6:	fe843783          	ld	a5,-24(s0)
    610006ea:	4f94                	lw	a3,24(a5)
    610006ec:	fffc0737          	lui	a4,0xfffc0
    610006f0:	177d                	addi	a4,a4,-1
    610006f2:	8f75                	and	a4,a4,a3
    610006f4:	cf98                	sw	a4,24(a5)
    610006f6:	fe843783          	ld	a5,-24(s0)
    610006fa:	4f94                	lw	a3,24(a5)
    610006fc:	ff900737          	lui	a4,0xff900
    61000700:	177d                	addi	a4,a4,-1
    61000702:	8f75                	and	a4,a4,a3
    61000704:	cf98                	sw	a4,24(a5)
    61000706:	fe843783          	ld	a5,-24(s0)
    6100070a:	4f94                	lw	a3,24(a5)
    6100070c:	fe800737          	lui	a4,0xfe800
    61000710:	177d                	addi	a4,a4,-1
    61000712:	8f75                	and	a4,a4,a3
    61000714:	cf98                	sw	a4,24(a5)
    61000716:	fe843783          	ld	a5,-24(s0)
    6100071a:	4f94                	lw	a3,24(a5)
    6100071c:	fa000737          	lui	a4,0xfa000
    61000720:	177d                	addi	a4,a4,-1
    61000722:	8f75                	and	a4,a4,a3
    61000724:	cf98                	sw	a4,24(a5)
    61000726:	fe843783          	ld	a5,-24(s0)
    6100072a:	4fd4                	lw	a3,28(a5)
    6100072c:	777d                	lui	a4,0xfffff
    6100072e:	8f75                	and	a4,a4,a3
    61000730:	00576713          	ori	a4,a4,5
    61000734:	cfd8                	sw	a4,28(a5)
    61000736:	fe843783          	ld	a5,-24(s0)
    6100073a:	4fd4                	lw	a3,28(a5)
    6100073c:	6705                	lui	a4,0x1
    6100073e:	8f55                	or	a4,a4,a3
    61000740:	cfd8                	sw	a4,28(a5)
    61000742:	fe843783          	ld	a5,-24(s0)
    61000746:	43b8                	lw	a4,64(a5)
    61000748:	f1f77713          	andi	a4,a4,-225
    6100074c:	c3b8                	sw	a4,64(a5)
    6100074e:	fe843783          	ld	a5,-24(s0)
    61000752:	43b8                	lw	a4,64(a5)
    61000754:	eff77713          	andi	a4,a4,-257
    61000758:	c3b8                	sw	a4,64(a5)
    6100075a:	fe843783          	ld	a5,-24(s0)
    6100075e:	43b8                	lw	a4,64(a5)
    61000760:	bff77713          	andi	a4,a4,-1025
    61000764:	c3b8                	sw	a4,64(a5)
    61000766:	fe843783          	ld	a5,-24(s0)
    6100076a:	43b4                	lw	a3,64(a5)
    6100076c:	777d                	lui	a4,0xfffff
    6100076e:	7ff70713          	addi	a4,a4,2047 # fffffffffffff7ff <_sp+0xffffffff9efdf7ff>
    61000772:	8f75                	and	a4,a4,a3
    61000774:	c3b8                	sw	a4,64(a5)
    61000776:	fe843783          	ld	a5,-24(s0)
    6100077a:	43b4                	lw	a3,64(a5)
    6100077c:	fffc0737          	lui	a4,0xfffc0
    61000780:	177d                	addi	a4,a4,-1
    61000782:	8f75                	and	a4,a4,a3
    61000784:	c3b8                	sw	a4,64(a5)
    61000786:	fe843783          	ld	a5,-24(s0)
    6100078a:	43b4                	lw	a3,64(a5)
    6100078c:	fff80737          	lui	a4,0xfff80
    61000790:	177d                	addi	a4,a4,-1
    61000792:	8f75                	and	a4,a4,a3
    61000794:	c3b8                	sw	a4,64(a5)
    61000796:	fe843783          	ld	a5,-24(s0)
    6100079a:	43b4                	lw	a3,64(a5)
    6100079c:	c0000737          	lui	a4,0xc0000
    610007a0:	177d                	addi	a4,a4,-1
    610007a2:	8f75                	and	a4,a4,a3
    610007a4:	c3b8                	sw	a4,64(a5)
    610007a6:	fe843783          	ld	a5,-24(s0)
    610007aa:	43b4                	lw	a3,64(a5)
    610007ac:	80000737          	lui	a4,0x80000
    610007b0:	fff74713          	not	a4,a4
    610007b4:	8f75                	and	a4,a4,a3
    610007b6:	c3b8                	sw	a4,64(a5)
    610007b8:	fe843783          	ld	a5,-24(s0)
    610007bc:	43f8                	lw	a4,68(a5)
    610007be:	9b79                	andi	a4,a4,-2
    610007c0:	c3f8                	sw	a4,68(a5)
    610007c2:	fe843783          	ld	a5,-24(s0)
    610007c6:	43f8                	lw	a4,68(a5)
    610007c8:	9b75                	andi	a4,a4,-3
    610007ca:	c3f8                	sw	a4,68(a5)
    610007cc:	fe843783          	ld	a5,-24(s0)
    610007d0:	43f8                	lw	a4,68(a5)
    610007d2:	fdf77713          	andi	a4,a4,-33
    610007d6:	c3f8                	sw	a4,68(a5)
    610007d8:	fe843783          	ld	a5,-24(s0)
    610007dc:	43f8                	lw	a4,68(a5)
    610007de:	fbf77713          	andi	a4,a4,-65
    610007e2:	c3f8                	sw	a4,68(a5)
    610007e4:	fe843783          	ld	a5,-24(s0)
    610007e8:	43f8                	lw	a4,68(a5)
    610007ea:	87f77713          	andi	a4,a4,-1921
    610007ee:	20076713          	ori	a4,a4,512
    610007f2:	c3f8                	sw	a4,68(a5)
    610007f4:	fe843783          	ld	a5,-24(s0)
    610007f8:	43f4                	lw	a3,68(a5)
    610007fa:	7761                	lui	a4,0xffff8
    610007fc:	7ff70713          	addi	a4,a4,2047 # ffffffffffff87ff <_sp+0xffffffff9efd87ff>
    61000800:	8f75                	and	a4,a4,a3
    61000802:	86ba                	mv	a3,a4
    61000804:	6709                	lui	a4,0x2
    61000806:	8f55                	or	a4,a4,a3
    61000808:	c3f8                	sw	a4,68(a5)
    6100080a:	fe843783          	ld	a5,-24(s0)
    6100080e:	61030737          	lui	a4,0x61030
    61000812:	c398                	sw	a4,0(a5)
    61000814:	fe843783          	ld	a5,-24(s0)
    61000818:	61030737          	lui	a4,0x61030
    6100081c:	50070713          	addi	a4,a4,1280 # 61030500 <_sp+0x10500>
    61000820:	c798                	sw	a4,8(a5)
    61000822:	4781                	li	a5,0
    61000824:	853e                	mv	a0,a5
    61000826:	6462                	ld	s0,24(sp)
    61000828:	6105                	addi	sp,sp,32
    6100082a:	8082                	ret

000000006100082c <dw_dmac_setTransferType>:
    6100082c:	7179                	addi	sp,sp,-48
    6100082e:	f406                	sd	ra,40(sp)
    61000830:	f022                	sd	s0,32(sp)
    61000832:	1800                	addi	s0,sp,48
    61000834:	fca43c23          	sd	a0,-40(s0)
    61000838:	87ae                	mv	a5,a1
    6100083a:	fcf42a23          	sw	a5,-44(s0)
    6100083e:	4785                	li	a5,1
    61000840:	fef42623          	sw	a5,-20(s0)
    61000844:	fec42783          	lw	a5,-20(s0)
    61000848:	0007871b          	sext.w	a4,a5
    6100084c:	4785                	li	a5,1
    6100084e:	16f71b63          	bne	a4,a5,610009c4 <dw_dmac_setTransferType+0x198>
    61000852:	fd442783          	lw	a5,-44(s0)
    61000856:	0007871b          	sext.w	a4,a5
    6100085a:	47a5                	li	a5,9
    6100085c:	18e7e963          	bltu	a5,a4,610009ee <dw_dmac_setTransferType+0x1c2>
    61000860:	fd446783          	lwu	a5,-44(s0)
    61000864:	00279713          	slli	a4,a5,0x2
    61000868:	00004797          	auipc	a5,0x4
    6100086c:	ae078793          	addi	a5,a5,-1312 # 61004348 <_read_r+0x56>
    61000870:	97ba                	add	a5,a5,a4
    61000872:	439c                	lw	a5,0(a5)
    61000874:	0007871b          	sext.w	a4,a5
    61000878:	00004797          	auipc	a5,0x4
    6100087c:	ad078793          	addi	a5,a5,-1328 # 61004348 <_read_r+0x56>
    61000880:	97ba                	add	a5,a5,a4
    61000882:	8782                	jr	a5
    61000884:	fec42783          	lw	a5,-20(s0)
    61000888:	0007871b          	sext.w	a4,a5
    6100088c:	4785                	li	a5,1
    6100088e:	12f71d63          	bne	a4,a5,610009c8 <dw_dmac_setTransferType+0x19c>
    61000892:	4589                	li	a1,2
    61000894:	fd843503          	ld	a0,-40(s0)
    61000898:	1a7000ef          	jal	ra,6100123e <dw_dmac_setSingle>
    6100089c:	a235                	j	610009c8 <dw_dmac_setTransferType+0x19c>
    6100089e:	fec42783          	lw	a5,-20(s0)
    610008a2:	0007871b          	sext.w	a4,a5
    610008a6:	4785                	li	a5,1
    610008a8:	12f71263          	bne	a4,a5,610009cc <dw_dmac_setTransferType+0x1a0>
    610008ac:	4581                	li	a1,0
    610008ae:	fd843503          	ld	a0,-40(s0)
    610008b2:	18d000ef          	jal	ra,6100123e <dw_dmac_setSingle>
    610008b6:	4585                	li	a1,1
    610008b8:	fd843503          	ld	a0,-40(s0)
    610008bc:	0d5000ef          	jal	ra,61001190 <dw_dmac_setReload>
    610008c0:	a231                	j	610009cc <dw_dmac_setTransferType+0x1a0>
    610008c2:	fec42783          	lw	a5,-20(s0)
    610008c6:	0007871b          	sext.w	a4,a5
    610008ca:	4785                	li	a5,1
    610008cc:	10f71263          	bne	a4,a5,610009d0 <dw_dmac_setTransferType+0x1a4>
    610008d0:	4585                	li	a1,1
    610008d2:	fd843503          	ld	a0,-40(s0)
    610008d6:	169000ef          	jal	ra,6100123e <dw_dmac_setSingle>
    610008da:	4581                	li	a1,0
    610008dc:	fd843503          	ld	a0,-40(s0)
    610008e0:	0b1000ef          	jal	ra,61001190 <dw_dmac_setReload>
    610008e4:	a0f5                	j	610009d0 <dw_dmac_setTransferType+0x1a4>
    610008e6:	fec42783          	lw	a5,-20(s0)
    610008ea:	0007871b          	sext.w	a4,a5
    610008ee:	4785                	li	a5,1
    610008f0:	0ef71263          	bne	a4,a5,610009d4 <dw_dmac_setTransferType+0x1a8>
    610008f4:	4589                	li	a1,2
    610008f6:	fd843503          	ld	a0,-40(s0)
    610008fa:	097000ef          	jal	ra,61001190 <dw_dmac_setReload>
    610008fe:	a8d9                	j	610009d4 <dw_dmac_setTransferType+0x1a8>
    61000900:	fec42783          	lw	a5,-20(s0)
    61000904:	0007871b          	sext.w	a4,a5
    61000908:	4785                	li	a5,1
    6100090a:	0cf71763          	bne	a4,a5,610009d8 <dw_dmac_setTransferType+0x1ac>
    6100090e:	4589                	li	a1,2
    61000910:	fd843503          	ld	a0,-40(s0)
    61000914:	12b000ef          	jal	ra,6100123e <dw_dmac_setSingle>
    61000918:	a0c1                	j	610009d8 <dw_dmac_setTransferType+0x1ac>
    6100091a:	fec42783          	lw	a5,-20(s0)
    6100091e:	0007871b          	sext.w	a4,a5
    61000922:	4785                	li	a5,1
    61000924:	0af71c63          	bne	a4,a5,610009dc <dw_dmac_setTransferType+0x1b0>
    61000928:	4581                	li	a1,0
    6100092a:	fd843503          	ld	a0,-40(s0)
    6100092e:	013000ef          	jal	ra,61001140 <dw_dmac_set_contigous>
    61000932:	4585                	li	a1,1
    61000934:	fd843503          	ld	a0,-40(s0)
    61000938:	1b5000ef          	jal	ra,610012ec <dw_dmac_setLlpEnable>
    6100093c:	a045                	j	610009dc <dw_dmac_setTransferType+0x1b0>
    6100093e:	fec42783          	lw	a5,-20(s0)
    61000942:	0007871b          	sext.w	a4,a5
    61000946:	4785                	li	a5,1
    61000948:	08f71c63          	bne	a4,a5,610009e0 <dw_dmac_setTransferType+0x1b4>
    6100094c:	4581                	li	a1,0
    6100094e:	fd843503          	ld	a0,-40(s0)
    61000952:	03f000ef          	jal	ra,61001190 <dw_dmac_setReload>
    61000956:	4585                	li	a1,1
    61000958:	fd843503          	ld	a0,-40(s0)
    6100095c:	191000ef          	jal	ra,610012ec <dw_dmac_setLlpEnable>
    61000960:	a041                	j	610009e0 <dw_dmac_setTransferType+0x1b4>
    61000962:	fec42783          	lw	a5,-20(s0)
    61000966:	0007871b          	sext.w	a4,a5
    6100096a:	4785                	li	a5,1
    6100096c:	06f71c63          	bne	a4,a5,610009e4 <dw_dmac_setTransferType+0x1b8>
    61000970:	4585                	li	a1,1
    61000972:	fd843503          	ld	a0,-40(s0)
    61000976:	7ca000ef          	jal	ra,61001140 <dw_dmac_set_contigous>
    6100097a:	4581                	li	a1,0
    6100097c:	fd843503          	ld	a0,-40(s0)
    61000980:	16d000ef          	jal	ra,610012ec <dw_dmac_setLlpEnable>
    61000984:	a085                	j	610009e4 <dw_dmac_setTransferType+0x1b8>
    61000986:	fec42783          	lw	a5,-20(s0)
    6100098a:	0007871b          	sext.w	a4,a5
    6100098e:	4785                	li	a5,1
    61000990:	04f71c63          	bne	a4,a5,610009e8 <dw_dmac_setTransferType+0x1bc>
    61000994:	4585                	li	a1,1
    61000996:	fd843503          	ld	a0,-40(s0)
    6100099a:	7f6000ef          	jal	ra,61001190 <dw_dmac_setReload>
    6100099e:	4581                	li	a1,0
    610009a0:	fd843503          	ld	a0,-40(s0)
    610009a4:	149000ef          	jal	ra,610012ec <dw_dmac_setLlpEnable>
    610009a8:	a081                	j	610009e8 <dw_dmac_setTransferType+0x1bc>
    610009aa:	fec42783          	lw	a5,-20(s0)
    610009ae:	0007871b          	sext.w	a4,a5
    610009b2:	4785                	li	a5,1
    610009b4:	02f71c63          	bne	a4,a5,610009ec <dw_dmac_setTransferType+0x1c0>
    610009b8:	4589                	li	a1,2
    610009ba:	fd843503          	ld	a0,-40(s0)
    610009be:	12f000ef          	jal	ra,610012ec <dw_dmac_setLlpEnable>
    610009c2:	a02d                	j	610009ec <dw_dmac_setTransferType+0x1c0>
    610009c4:	0001                	nop
    610009c6:	a025                	j	610009ee <dw_dmac_setTransferType+0x1c2>
    610009c8:	0001                	nop
    610009ca:	a015                	j	610009ee <dw_dmac_setTransferType+0x1c2>
    610009cc:	0001                	nop
    610009ce:	a005                	j	610009ee <dw_dmac_setTransferType+0x1c2>
    610009d0:	0001                	nop
    610009d2:	a831                	j	610009ee <dw_dmac_setTransferType+0x1c2>
    610009d4:	0001                	nop
    610009d6:	a821                	j	610009ee <dw_dmac_setTransferType+0x1c2>
    610009d8:	0001                	nop
    610009da:	a811                	j	610009ee <dw_dmac_setTransferType+0x1c2>
    610009dc:	0001                	nop
    610009de:	a801                	j	610009ee <dw_dmac_setTransferType+0x1c2>
    610009e0:	0001                	nop
    610009e2:	a031                	j	610009ee <dw_dmac_setTransferType+0x1c2>
    610009e4:	0001                	nop
    610009e6:	a021                	j	610009ee <dw_dmac_setTransferType+0x1c2>
    610009e8:	0001                	nop
    610009ea:	a011                	j	610009ee <dw_dmac_setTransferType+0x1c2>
    610009ec:	0001                	nop
    610009ee:	fec42783          	lw	a5,-20(s0)
    610009f2:	853e                	mv	a0,a5
    610009f4:	70a2                	ld	ra,40(sp)
    610009f6:	7402                	ld	s0,32(sp)
    610009f8:	6145                	addi	sp,sp,48
    610009fa:	8082                	ret

00000000610009fc <dw_dmac_setMemPeriphFlowCtl>:
    610009fc:	7179                	addi	sp,sp,-48
    610009fe:	f422                	sd	s0,40(sp)
    61000a00:	1800                	addi	s0,sp,48
    61000a02:	fca43c23          	sd	a0,-40(s0)
    61000a06:	87ae                	mv	a5,a1
    61000a08:	fcf42a23          	sw	a5,-44(s0)
    61000a0c:	4785                	li	a5,1
    61000a0e:	fef42623          	sw	a5,-20(s0)
    61000a12:	fd843783          	ld	a5,-40(s0)
    61000a16:	4f9c                	lw	a5,24(a5)
    61000a18:	0147d79b          	srliw	a5,a5,0x14
    61000a1c:	8b9d                	andi	a5,a5,7
    61000a1e:	0ff7f793          	zext.b	a5,a5
    61000a22:	0007871b          	sext.w	a4,a5
    61000a26:	fd442783          	lw	a5,-44(s0)
    61000a2a:	2781                	sext.w	a5,a5
    61000a2c:	08e78c63          	beq	a5,a4,61000ac4 <dw_dmac_setMemPeriphFlowCtl+0xc8>
    61000a30:	fd442783          	lw	a5,-44(s0)
    61000a34:	0007871b          	sext.w	a4,a5
    61000a38:	4789                	li	a5,2
    61000a3a:	04f70b63          	beq	a4,a5,61000a90 <dw_dmac_setMemPeriphFlowCtl+0x94>
    61000a3e:	fd442783          	lw	a5,-44(s0)
    61000a42:	0007871b          	sext.w	a4,a5
    61000a46:	4789                	li	a5,2
    61000a48:	06e7e163          	bltu	a5,a4,61000aaa <dw_dmac_setMemPeriphFlowCtl+0xae>
    61000a4c:	fd442783          	lw	a5,-44(s0)
    61000a50:	2781                	sext.w	a5,a5
    61000a52:	cb89                	beqz	a5,61000a64 <dw_dmac_setMemPeriphFlowCtl+0x68>
    61000a54:	fd442783          	lw	a5,-44(s0)
    61000a58:	0007871b          	sext.w	a4,a5
    61000a5c:	4785                	li	a5,1
    61000a5e:	00f70c63          	beq	a4,a5,61000a76 <dw_dmac_setMemPeriphFlowCtl+0x7a>
    61000a62:	a0a1                	j	61000aaa <dw_dmac_setMemPeriphFlowCtl+0xae>
    61000a64:	fd843783          	ld	a5,-40(s0)
    61000a68:	4f94                	lw	a3,24(a5)
    61000a6a:	ff900737          	lui	a4,0xff900
    61000a6e:	177d                	addi	a4,a4,-1
    61000a70:	8f75                	and	a4,a4,a3
    61000a72:	cf98                	sw	a4,24(a5)
    61000a74:	a889                	j	61000ac6 <dw_dmac_setMemPeriphFlowCtl+0xca>
    61000a76:	fd843783          	ld	a5,-40(s0)
    61000a7a:	4f94                	lw	a3,24(a5)
    61000a7c:	ff900737          	lui	a4,0xff900
    61000a80:	177d                	addi	a4,a4,-1
    61000a82:	8f75                	and	a4,a4,a3
    61000a84:	86ba                	mv	a3,a4
    61000a86:	00100737          	lui	a4,0x100
    61000a8a:	8f55                	or	a4,a4,a3
    61000a8c:	cf98                	sw	a4,24(a5)
    61000a8e:	a825                	j	61000ac6 <dw_dmac_setMemPeriphFlowCtl+0xca>
    61000a90:	fd843783          	ld	a5,-40(s0)
    61000a94:	4f94                	lw	a3,24(a5)
    61000a96:	ff900737          	lui	a4,0xff900
    61000a9a:	177d                	addi	a4,a4,-1
    61000a9c:	8f75                	and	a4,a4,a3
    61000a9e:	86ba                	mv	a3,a4
    61000aa0:	00200737          	lui	a4,0x200
    61000aa4:	8f55                	or	a4,a4,a3
    61000aa6:	cf98                	sw	a4,24(a5)
    61000aa8:	a839                	j	61000ac6 <dw_dmac_setMemPeriphFlowCtl+0xca>
    61000aaa:	fd843783          	ld	a5,-40(s0)
    61000aae:	4f94                	lw	a3,24(a5)
    61000ab0:	ff900737          	lui	a4,0xff900
    61000ab4:	177d                	addi	a4,a4,-1
    61000ab6:	8f75                	and	a4,a4,a3
    61000ab8:	86ba                	mv	a3,a4
    61000aba:	00300737          	lui	a4,0x300
    61000abe:	8f55                	or	a4,a4,a3
    61000ac0:	cf98                	sw	a4,24(a5)
    61000ac2:	a011                	j	61000ac6 <dw_dmac_setMemPeriphFlowCtl+0xca>
    61000ac4:	0001                	nop
    61000ac6:	fec42783          	lw	a5,-20(s0)
    61000aca:	853e                	mv	a0,a5
    61000acc:	7422                	ld	s0,40(sp)
    61000ace:	6145                	addi	sp,sp,48
    61000ad0:	8082                	ret

0000000061000ad2 <dw_dmac_setTransWidth>:
    61000ad2:	7179                	addi	sp,sp,-48
    61000ad4:	f422                	sd	s0,40(sp)
    61000ad6:	1800                	addi	s0,sp,48
    61000ad8:	fca43c23          	sd	a0,-40(s0)
    61000adc:	87ae                	mv	a5,a1
    61000ade:	8732                	mv	a4,a2
    61000ae0:	fcf42a23          	sw	a5,-44(s0)
    61000ae4:	87ba                	mv	a5,a4
    61000ae6:	fcf42823          	sw	a5,-48(s0)
    61000aea:	4785                	li	a5,1
    61000aec:	fef42623          	sw	a5,-20(s0)
    61000af0:	fec42783          	lw	a5,-20(s0)
    61000af4:	0007871b          	sext.w	a4,a5
    61000af8:	4785                	li	a5,1
    61000afa:	1ef71463          	bne	a4,a5,61000ce2 <dw_dmac_setTransWidth+0x210>
    61000afe:	fe042423          	sw	zero,-24(s0)
    61000b02:	fd442783          	lw	a5,-44(s0)
    61000b06:	2781                	sext.w	a5,a5
    61000b08:	cb81                	beqz	a5,61000b18 <dw_dmac_setTransWidth+0x46>
    61000b0a:	fd442783          	lw	a5,-44(s0)
    61000b0e:	0007871b          	sext.w	a4,a5
    61000b12:	4789                	li	a5,2
    61000b14:	0ef71063          	bne	a4,a5,61000bf4 <dw_dmac_setTransWidth+0x122>
    61000b18:	fd843783          	ld	a5,-40(s0)
    61000b1c:	4f9c                	lw	a5,24(a5)
    61000b1e:	0047d79b          	srliw	a5,a5,0x4
    61000b22:	8b9d                	andi	a5,a5,7
    61000b24:	0ff7f793          	zext.b	a5,a5
    61000b28:	0007871b          	sext.w	a4,a5
    61000b2c:	fd042783          	lw	a5,-48(s0)
    61000b30:	2781                	sext.w	a5,a5
    61000b32:	0ce78163          	beq	a5,a4,61000bf4 <dw_dmac_setTransWidth+0x122>
    61000b36:	fd042783          	lw	a5,-48(s0)
    61000b3a:	0007871b          	sext.w	a4,a5
    61000b3e:	4791                	li	a5,4
    61000b40:	08e7ee63          	bltu	a5,a4,61000bdc <dw_dmac_setTransWidth+0x10a>
    61000b44:	fd046783          	lwu	a5,-48(s0)
    61000b48:	00279713          	slli	a4,a5,0x2
    61000b4c:	00004797          	auipc	a5,0x4
    61000b50:	82478793          	addi	a5,a5,-2012 # 61004370 <_read_r+0x7e>
    61000b54:	97ba                	add	a5,a5,a4
    61000b56:	439c                	lw	a5,0(a5)
    61000b58:	0007871b          	sext.w	a4,a5
    61000b5c:	00004797          	auipc	a5,0x4
    61000b60:	81478793          	addi	a5,a5,-2028 # 61004370 <_read_r+0x7e>
    61000b64:	97ba                	add	a5,a5,a4
    61000b66:	8782                	jr	a5
    61000b68:	fd843783          	ld	a5,-40(s0)
    61000b6c:	4f98                	lw	a4,24(a5)
    61000b6e:	f8f77713          	andi	a4,a4,-113
    61000b72:	cf98                	sw	a4,24(a5)
    61000b74:	4785                	li	a5,1
    61000b76:	fef42423          	sw	a5,-24(s0)
    61000b7a:	a8b5                	j	61000bf6 <dw_dmac_setTransWidth+0x124>
    61000b7c:	fd843783          	ld	a5,-40(s0)
    61000b80:	4f98                	lw	a4,24(a5)
    61000b82:	f8f77713          	andi	a4,a4,-113
    61000b86:	01076713          	ori	a4,a4,16
    61000b8a:	cf98                	sw	a4,24(a5)
    61000b8c:	4785                	li	a5,1
    61000b8e:	fef42423          	sw	a5,-24(s0)
    61000b92:	a095                	j	61000bf6 <dw_dmac_setTransWidth+0x124>
    61000b94:	fd843783          	ld	a5,-40(s0)
    61000b98:	4f98                	lw	a4,24(a5)
    61000b9a:	f8f77713          	andi	a4,a4,-113
    61000b9e:	02076713          	ori	a4,a4,32
    61000ba2:	cf98                	sw	a4,24(a5)
    61000ba4:	4785                	li	a5,1
    61000ba6:	fef42423          	sw	a5,-24(s0)
    61000baa:	a0b1                	j	61000bf6 <dw_dmac_setTransWidth+0x124>
    61000bac:	fd843783          	ld	a5,-40(s0)
    61000bb0:	4f98                	lw	a4,24(a5)
    61000bb2:	f8f77713          	andi	a4,a4,-113
    61000bb6:	03076713          	ori	a4,a4,48
    61000bba:	cf98                	sw	a4,24(a5)
    61000bbc:	4785                	li	a5,1
    61000bbe:	fef42423          	sw	a5,-24(s0)
    61000bc2:	a815                	j	61000bf6 <dw_dmac_setTransWidth+0x124>
    61000bc4:	fd843783          	ld	a5,-40(s0)
    61000bc8:	4f98                	lw	a4,24(a5)
    61000bca:	f8f77713          	andi	a4,a4,-113
    61000bce:	04076713          	ori	a4,a4,64
    61000bd2:	cf98                	sw	a4,24(a5)
    61000bd4:	4785                	li	a5,1
    61000bd6:	fef42423          	sw	a5,-24(s0)
    61000bda:	a831                	j	61000bf6 <dw_dmac_setTransWidth+0x124>
    61000bdc:	fd843783          	ld	a5,-40(s0)
    61000be0:	4f98                	lw	a4,24(a5)
    61000be2:	f8f77713          	andi	a4,a4,-113
    61000be6:	05076713          	ori	a4,a4,80
    61000bea:	cf98                	sw	a4,24(a5)
    61000bec:	4785                	li	a5,1
    61000bee:	fef42423          	sw	a5,-24(s0)
    61000bf2:	a011                	j	61000bf6 <dw_dmac_setTransWidth+0x124>
    61000bf4:	0001                	nop
    61000bf6:	fd442783          	lw	a5,-44(s0)
    61000bfa:	0007871b          	sext.w	a4,a5
    61000bfe:	4785                	li	a5,1
    61000c00:	00f70963          	beq	a4,a5,61000c12 <dw_dmac_setTransWidth+0x140>
    61000c04:	fd442783          	lw	a5,-44(s0)
    61000c08:	0007871b          	sext.w	a4,a5
    61000c0c:	4789                	li	a5,2
    61000c0e:	0cf71a63          	bne	a4,a5,61000ce2 <dw_dmac_setTransWidth+0x210>
    61000c12:	fd843783          	ld	a5,-40(s0)
    61000c16:	4f9c                	lw	a5,24(a5)
    61000c18:	0017d79b          	srliw	a5,a5,0x1
    61000c1c:	8b9d                	andi	a5,a5,7
    61000c1e:	0ff7f793          	zext.b	a5,a5
    61000c22:	0007871b          	sext.w	a4,a5
    61000c26:	fd042783          	lw	a5,-48(s0)
    61000c2a:	2781                	sext.w	a5,a5
    61000c2c:	0ae78b63          	beq	a5,a4,61000ce2 <dw_dmac_setTransWidth+0x210>
    61000c30:	fd042783          	lw	a5,-48(s0)
    61000c34:	0007871b          	sext.w	a4,a5
    61000c38:	4791                	li	a5,4
    61000c3a:	08e7e963          	bltu	a5,a4,61000ccc <dw_dmac_setTransWidth+0x1fa>
    61000c3e:	fd046783          	lwu	a5,-48(s0)
    61000c42:	00279713          	slli	a4,a5,0x2
    61000c46:	00003797          	auipc	a5,0x3
    61000c4a:	73e78793          	addi	a5,a5,1854 # 61004384 <_read_r+0x92>
    61000c4e:	97ba                	add	a5,a5,a4
    61000c50:	439c                	lw	a5,0(a5)
    61000c52:	0007871b          	sext.w	a4,a5
    61000c56:	00003797          	auipc	a5,0x3
    61000c5a:	72e78793          	addi	a5,a5,1838 # 61004384 <_read_r+0x92>
    61000c5e:	97ba                	add	a5,a5,a4
    61000c60:	8782                	jr	a5
    61000c62:	fd843783          	ld	a5,-40(s0)
    61000c66:	4f98                	lw	a4,24(a5)
    61000c68:	9b45                	andi	a4,a4,-15
    61000c6a:	cf98                	sw	a4,24(a5)
    61000c6c:	4785                	li	a5,1
    61000c6e:	fef42423          	sw	a5,-24(s0)
    61000c72:	a88d                	j	61000ce4 <dw_dmac_setTransWidth+0x212>
    61000c74:	fd843783          	ld	a5,-40(s0)
    61000c78:	4f98                	lw	a4,24(a5)
    61000c7a:	9b45                	andi	a4,a4,-15
    61000c7c:	00276713          	ori	a4,a4,2
    61000c80:	cf98                	sw	a4,24(a5)
    61000c82:	4785                	li	a5,1
    61000c84:	fef42423          	sw	a5,-24(s0)
    61000c88:	a8b1                	j	61000ce4 <dw_dmac_setTransWidth+0x212>
    61000c8a:	fd843783          	ld	a5,-40(s0)
    61000c8e:	4f98                	lw	a4,24(a5)
    61000c90:	9b45                	andi	a4,a4,-15
    61000c92:	00476713          	ori	a4,a4,4
    61000c96:	cf98                	sw	a4,24(a5)
    61000c98:	4785                	li	a5,1
    61000c9a:	fef42423          	sw	a5,-24(s0)
    61000c9e:	a099                	j	61000ce4 <dw_dmac_setTransWidth+0x212>
    61000ca0:	fd843783          	ld	a5,-40(s0)
    61000ca4:	4f98                	lw	a4,24(a5)
    61000ca6:	9b45                	andi	a4,a4,-15
    61000ca8:	00676713          	ori	a4,a4,6
    61000cac:	cf98                	sw	a4,24(a5)
    61000cae:	4785                	li	a5,1
    61000cb0:	fef42423          	sw	a5,-24(s0)
    61000cb4:	a805                	j	61000ce4 <dw_dmac_setTransWidth+0x212>
    61000cb6:	fd843783          	ld	a5,-40(s0)
    61000cba:	4f98                	lw	a4,24(a5)
    61000cbc:	9b45                	andi	a4,a4,-15
    61000cbe:	00876713          	ori	a4,a4,8
    61000cc2:	cf98                	sw	a4,24(a5)
    61000cc4:	4785                	li	a5,1
    61000cc6:	fef42423          	sw	a5,-24(s0)
    61000cca:	a829                	j	61000ce4 <dw_dmac_setTransWidth+0x212>
    61000ccc:	fd843783          	ld	a5,-40(s0)
    61000cd0:	4f98                	lw	a4,24(a5)
    61000cd2:	9b45                	andi	a4,a4,-15
    61000cd4:	00a76713          	ori	a4,a4,10
    61000cd8:	cf98                	sw	a4,24(a5)
    61000cda:	4785                	li	a5,1
    61000cdc:	fef42423          	sw	a5,-24(s0)
    61000ce0:	a011                	j	61000ce4 <dw_dmac_setTransWidth+0x212>
    61000ce2:	0001                	nop
    61000ce4:	fec42783          	lw	a5,-20(s0)
    61000ce8:	853e                	mv	a0,a5
    61000cea:	7422                	ld	s0,40(sp)
    61000cec:	6145                	addi	sp,sp,48
    61000cee:	8082                	ret

0000000061000cf0 <dw_dmac_setBlockTransSize>:
    61000cf0:	7179                	addi	sp,sp,-48
    61000cf2:	f422                	sd	s0,40(sp)
    61000cf4:	1800                	addi	s0,sp,48
    61000cf6:	fca43c23          	sd	a0,-40(s0)
    61000cfa:	87ae                	mv	a5,a1
    61000cfc:	fcf41b23          	sh	a5,-42(s0)
    61000d00:	4785                	li	a5,1
    61000d02:	fef42623          	sw	a5,-20(s0)
    61000d06:	fd843783          	ld	a5,-40(s0)
    61000d0a:	4fdc                	lw	a5,28(a5)
    61000d0c:	873e                	mv	a4,a5
    61000d0e:	6785                	lui	a5,0x1
    61000d10:	17fd                	addi	a5,a5,-1
    61000d12:	8ff9                	and	a5,a5,a4
    61000d14:	17c2                	slli	a5,a5,0x30
    61000d16:	93c1                	srli	a5,a5,0x30
    61000d18:	0007871b          	sext.w	a4,a5
    61000d1c:	fd645783          	lhu	a5,-42(s0)
    61000d20:	2781                	sext.w	a5,a5
    61000d22:	02f70863          	beq	a4,a5,61000d52 <dw_dmac_setBlockTransSize+0x62>
    61000d26:	fd645703          	lhu	a4,-42(s0)
    61000d2a:	6785                	lui	a5,0x1
    61000d2c:	17fd                	addi	a5,a5,-1
    61000d2e:	8ff9                	and	a5,a5,a4
    61000d30:	03079713          	slli	a4,a5,0x30
    61000d34:	9341                	srli	a4,a4,0x30
    61000d36:	fd843783          	ld	a5,-40(s0)
    61000d3a:	86ba                	mv	a3,a4
    61000d3c:	6705                	lui	a4,0x1
    61000d3e:	177d                	addi	a4,a4,-1
    61000d40:	00e6f633          	and	a2,a3,a4
    61000d44:	4fd4                	lw	a3,28(a5)
    61000d46:	777d                	lui	a4,0xfffff
    61000d48:	8f75                	and	a4,a4,a3
    61000d4a:	86ba                	mv	a3,a4
    61000d4c:	8732                	mv	a4,a2
    61000d4e:	8f55                	or	a4,a4,a3
    61000d50:	cfd8                	sw	a4,28(a5)
    61000d52:	fec42783          	lw	a5,-20(s0)
    61000d56:	853e                	mv	a0,a5
    61000d58:	7422                	ld	s0,40(sp)
    61000d5a:	6145                	addi	sp,sp,48
    61000d5c:	8082                	ret

0000000061000d5e <dw_dmac_setBurstTransLength>:
    61000d5e:	7179                	addi	sp,sp,-48
    61000d60:	f422                	sd	s0,40(sp)
    61000d62:	1800                	addi	s0,sp,48
    61000d64:	fca43c23          	sd	a0,-40(s0)
    61000d68:	87ae                	mv	a5,a1
    61000d6a:	8732                	mv	a4,a2
    61000d6c:	fcf42a23          	sw	a5,-44(s0)
    61000d70:	87ba                	mv	a5,a4
    61000d72:	fcf42823          	sw	a5,-48(s0)
    61000d76:	4785                	li	a5,1
    61000d78:	fef42623          	sw	a5,-20(s0)
    61000d7c:	fec42783          	lw	a5,-20(s0)
    61000d80:	0007871b          	sext.w	a4,a5
    61000d84:	4785                	li	a5,1
    61000d86:	24f71463          	bne	a4,a5,61000fce <dw_dmac_setBurstTransLength+0x270>
    61000d8a:	fe042423          	sw	zero,-24(s0)
    61000d8e:	fd442783          	lw	a5,-44(s0)
    61000d92:	2781                	sext.w	a5,a5
    61000d94:	cb81                	beqz	a5,61000da4 <dw_dmac_setBurstTransLength+0x46>
    61000d96:	fd442783          	lw	a5,-44(s0)
    61000d9a:	0007871b          	sext.w	a4,a5
    61000d9e:	4789                	li	a5,2
    61000da0:	0ef71e63          	bne	a4,a5,61000e9c <dw_dmac_setBurstTransLength+0x13e>
    61000da4:	fd843783          	ld	a5,-40(s0)
    61000da8:	4f9c                	lw	a5,24(a5)
    61000daa:	00e7d79b          	srliw	a5,a5,0xe
    61000dae:	8b9d                	andi	a5,a5,7
    61000db0:	0ff7f793          	zext.b	a5,a5
    61000db4:	0007871b          	sext.w	a4,a5
    61000db8:	fd042783          	lw	a5,-48(s0)
    61000dbc:	2781                	sext.w	a5,a5
    61000dbe:	0ce78f63          	beq	a5,a4,61000e9c <dw_dmac_setBurstTransLength+0x13e>
    61000dc2:	fd042783          	lw	a5,-48(s0)
    61000dc6:	0007871b          	sext.w	a4,a5
    61000dca:	4799                	li	a5,6
    61000dcc:	0ae7ee63          	bltu	a5,a4,61000e88 <dw_dmac_setBurstTransLength+0x12a>
    61000dd0:	fd046783          	lwu	a5,-48(s0)
    61000dd4:	00279713          	slli	a4,a5,0x2
    61000dd8:	00003797          	auipc	a5,0x3
    61000ddc:	5c078793          	addi	a5,a5,1472 # 61004398 <_read_r+0xa6>
    61000de0:	97ba                	add	a5,a5,a4
    61000de2:	439c                	lw	a5,0(a5)
    61000de4:	0007871b          	sext.w	a4,a5
    61000de8:	00003797          	auipc	a5,0x3
    61000dec:	5b078793          	addi	a5,a5,1456 # 61004398 <_read_r+0xa6>
    61000df0:	97ba                	add	a5,a5,a4
    61000df2:	8782                	jr	a5
    61000df4:	fd843783          	ld	a5,-40(s0)
    61000df8:	4f94                	lw	a3,24(a5)
    61000dfa:	7711                	lui	a4,0xfffe4
    61000dfc:	177d                	addi	a4,a4,-1
    61000dfe:	8f75                	and	a4,a4,a3
    61000e00:	cf98                	sw	a4,24(a5)
    61000e02:	a851                	j	61000e96 <dw_dmac_setBurstTransLength+0x138>
    61000e04:	fd843783          	ld	a5,-40(s0)
    61000e08:	4f94                	lw	a3,24(a5)
    61000e0a:	7711                	lui	a4,0xfffe4
    61000e0c:	177d                	addi	a4,a4,-1
    61000e0e:	8f75                	and	a4,a4,a3
    61000e10:	86ba                	mv	a3,a4
    61000e12:	6711                	lui	a4,0x4
    61000e14:	8f55                	or	a4,a4,a3
    61000e16:	cf98                	sw	a4,24(a5)
    61000e18:	a8bd                	j	61000e96 <dw_dmac_setBurstTransLength+0x138>
    61000e1a:	fd843783          	ld	a5,-40(s0)
    61000e1e:	4f94                	lw	a3,24(a5)
    61000e20:	7711                	lui	a4,0xfffe4
    61000e22:	177d                	addi	a4,a4,-1
    61000e24:	8f75                	and	a4,a4,a3
    61000e26:	86ba                	mv	a3,a4
    61000e28:	6721                	lui	a4,0x8
    61000e2a:	8f55                	or	a4,a4,a3
    61000e2c:	cf98                	sw	a4,24(a5)
    61000e2e:	a0a5                	j	61000e96 <dw_dmac_setBurstTransLength+0x138>
    61000e30:	fd843783          	ld	a5,-40(s0)
    61000e34:	4f94                	lw	a3,24(a5)
    61000e36:	7711                	lui	a4,0xfffe4
    61000e38:	177d                	addi	a4,a4,-1
    61000e3a:	8f75                	and	a4,a4,a3
    61000e3c:	86ba                	mv	a3,a4
    61000e3e:	6731                	lui	a4,0xc
    61000e40:	8f55                	or	a4,a4,a3
    61000e42:	cf98                	sw	a4,24(a5)
    61000e44:	a889                	j	61000e96 <dw_dmac_setBurstTransLength+0x138>
    61000e46:	fd843783          	ld	a5,-40(s0)
    61000e4a:	4f94                	lw	a3,24(a5)
    61000e4c:	7711                	lui	a4,0xfffe4
    61000e4e:	177d                	addi	a4,a4,-1
    61000e50:	8f75                	and	a4,a4,a3
    61000e52:	86ba                	mv	a3,a4
    61000e54:	6741                	lui	a4,0x10
    61000e56:	8f55                	or	a4,a4,a3
    61000e58:	cf98                	sw	a4,24(a5)
    61000e5a:	a835                	j	61000e96 <dw_dmac_setBurstTransLength+0x138>
    61000e5c:	fd843783          	ld	a5,-40(s0)
    61000e60:	4f94                	lw	a3,24(a5)
    61000e62:	7711                	lui	a4,0xfffe4
    61000e64:	177d                	addi	a4,a4,-1
    61000e66:	8f75                	and	a4,a4,a3
    61000e68:	86ba                	mv	a3,a4
    61000e6a:	6751                	lui	a4,0x14
    61000e6c:	8f55                	or	a4,a4,a3
    61000e6e:	cf98                	sw	a4,24(a5)
    61000e70:	a01d                	j	61000e96 <dw_dmac_setBurstTransLength+0x138>
    61000e72:	fd843783          	ld	a5,-40(s0)
    61000e76:	4f94                	lw	a3,24(a5)
    61000e78:	7711                	lui	a4,0xfffe4
    61000e7a:	177d                	addi	a4,a4,-1
    61000e7c:	8f75                	and	a4,a4,a3
    61000e7e:	86ba                	mv	a3,a4
    61000e80:	6761                	lui	a4,0x18
    61000e82:	8f55                	or	a4,a4,a3
    61000e84:	cf98                	sw	a4,24(a5)
    61000e86:	a801                	j	61000e96 <dw_dmac_setBurstTransLength+0x138>
    61000e88:	fd843783          	ld	a5,-40(s0)
    61000e8c:	4f94                	lw	a3,24(a5)
    61000e8e:	6771                	lui	a4,0x1c
    61000e90:	8f55                	or	a4,a4,a3
    61000e92:	cf98                	sw	a4,24(a5)
    61000e94:	0001                	nop
    61000e96:	4785                	li	a5,1
    61000e98:	fef42423          	sw	a5,-24(s0)
    61000e9c:	fd442783          	lw	a5,-44(s0)
    61000ea0:	0007871b          	sext.w	a4,a5
    61000ea4:	4785                	li	a5,1
    61000ea6:	00f70963          	beq	a4,a5,61000eb8 <dw_dmac_setBurstTransLength+0x15a>
    61000eaa:	fd442783          	lw	a5,-44(s0)
    61000eae:	0007871b          	sext.w	a4,a5
    61000eb2:	4789                	li	a5,2
    61000eb4:	10f71d63          	bne	a4,a5,61000fce <dw_dmac_setBurstTransLength+0x270>
    61000eb8:	fd843783          	ld	a5,-40(s0)
    61000ebc:	4f9c                	lw	a5,24(a5)
    61000ebe:	00b7d79b          	srliw	a5,a5,0xb
    61000ec2:	8b9d                	andi	a5,a5,7
    61000ec4:	0ff7f793          	zext.b	a5,a5
    61000ec8:	0007871b          	sext.w	a4,a5
    61000ecc:	fd042783          	lw	a5,-48(s0)
    61000ed0:	2781                	sext.w	a5,a5
    61000ed2:	0ee78e63          	beq	a5,a4,61000fce <dw_dmac_setBurstTransLength+0x270>
    61000ed6:	fd042783          	lw	a5,-48(s0)
    61000eda:	0007871b          	sext.w	a4,a5
    61000ede:	4799                	li	a5,6
    61000ee0:	0ce7eb63          	bltu	a5,a4,61000fb6 <dw_dmac_setBurstTransLength+0x258>
    61000ee4:	fd046783          	lwu	a5,-48(s0)
    61000ee8:	00279713          	slli	a4,a5,0x2
    61000eec:	00003797          	auipc	a5,0x3
    61000ef0:	4c878793          	addi	a5,a5,1224 # 610043b4 <_read_r+0xc2>
    61000ef4:	97ba                	add	a5,a5,a4
    61000ef6:	439c                	lw	a5,0(a5)
    61000ef8:	0007871b          	sext.w	a4,a5
    61000efc:	00003797          	auipc	a5,0x3
    61000f00:	4b878793          	addi	a5,a5,1208 # 610043b4 <_read_r+0xc2>
    61000f04:	97ba                	add	a5,a5,a4
    61000f06:	8782                	jr	a5
    61000f08:	fd843783          	ld	a5,-40(s0)
    61000f0c:	4f94                	lw	a3,24(a5)
    61000f0e:	7771                	lui	a4,0xffffc
    61000f10:	7ff70713          	addi	a4,a4,2047 # ffffffffffffc7ff <_sp+0xffffffff9efdc7ff>
    61000f14:	8f75                	and	a4,a4,a3
    61000f16:	cf98                	sw	a4,24(a5)
    61000f18:	a845                	j	61000fc8 <dw_dmac_setBurstTransLength+0x26a>
    61000f1a:	fd843783          	ld	a5,-40(s0)
    61000f1e:	4f94                	lw	a3,24(a5)
    61000f20:	7771                	lui	a4,0xffffc
    61000f22:	7ff70713          	addi	a4,a4,2047 # ffffffffffffc7ff <_sp+0xffffffff9efdc7ff>
    61000f26:	8f75                	and	a4,a4,a3
    61000f28:	86ba                	mv	a3,a4
    61000f2a:	6705                	lui	a4,0x1
    61000f2c:	80070713          	addi	a4,a4,-2048 # 800 <__stack_size>
    61000f30:	8f55                	or	a4,a4,a3
    61000f32:	cf98                	sw	a4,24(a5)
    61000f34:	a851                	j	61000fc8 <dw_dmac_setBurstTransLength+0x26a>
    61000f36:	fd843783          	ld	a5,-40(s0)
    61000f3a:	4f94                	lw	a3,24(a5)
    61000f3c:	7771                	lui	a4,0xffffc
    61000f3e:	7ff70713          	addi	a4,a4,2047 # ffffffffffffc7ff <_sp+0xffffffff9efdc7ff>
    61000f42:	8f75                	and	a4,a4,a3
    61000f44:	86ba                	mv	a3,a4
    61000f46:	6705                	lui	a4,0x1
    61000f48:	8f55                	or	a4,a4,a3
    61000f4a:	cf98                	sw	a4,24(a5)
    61000f4c:	a8b5                	j	61000fc8 <dw_dmac_setBurstTransLength+0x26a>
    61000f4e:	fd843783          	ld	a5,-40(s0)
    61000f52:	4f94                	lw	a3,24(a5)
    61000f54:	7771                	lui	a4,0xffffc
    61000f56:	7ff70713          	addi	a4,a4,2047 # ffffffffffffc7ff <_sp+0xffffffff9efdc7ff>
    61000f5a:	8f75                	and	a4,a4,a3
    61000f5c:	86ba                	mv	a3,a4
    61000f5e:	6709                	lui	a4,0x2
    61000f60:	80070713          	addi	a4,a4,-2048 # 1800 <__stack_size+0x1000>
    61000f64:	8f55                	or	a4,a4,a3
    61000f66:	cf98                	sw	a4,24(a5)
    61000f68:	a085                	j	61000fc8 <dw_dmac_setBurstTransLength+0x26a>
    61000f6a:	fd843783          	ld	a5,-40(s0)
    61000f6e:	4f94                	lw	a3,24(a5)
    61000f70:	7771                	lui	a4,0xffffc
    61000f72:	7ff70713          	addi	a4,a4,2047 # ffffffffffffc7ff <_sp+0xffffffff9efdc7ff>
    61000f76:	8f75                	and	a4,a4,a3
    61000f78:	86ba                	mv	a3,a4
    61000f7a:	6709                	lui	a4,0x2
    61000f7c:	8f55                	or	a4,a4,a3
    61000f7e:	cf98                	sw	a4,24(a5)
    61000f80:	a0a1                	j	61000fc8 <dw_dmac_setBurstTransLength+0x26a>
    61000f82:	fd843783          	ld	a5,-40(s0)
    61000f86:	4f94                	lw	a3,24(a5)
    61000f88:	7771                	lui	a4,0xffffc
    61000f8a:	7ff70713          	addi	a4,a4,2047 # ffffffffffffc7ff <_sp+0xffffffff9efdc7ff>
    61000f8e:	8f75                	and	a4,a4,a3
    61000f90:	86ba                	mv	a3,a4
    61000f92:	670d                	lui	a4,0x3
    61000f94:	80070713          	addi	a4,a4,-2048 # 2800 <__stack_size+0x2000>
    61000f98:	8f55                	or	a4,a4,a3
    61000f9a:	cf98                	sw	a4,24(a5)
    61000f9c:	a035                	j	61000fc8 <dw_dmac_setBurstTransLength+0x26a>
    61000f9e:	fd843783          	ld	a5,-40(s0)
    61000fa2:	4f94                	lw	a3,24(a5)
    61000fa4:	7771                	lui	a4,0xffffc
    61000fa6:	7ff70713          	addi	a4,a4,2047 # ffffffffffffc7ff <_sp+0xffffffff9efdc7ff>
    61000faa:	8f75                	and	a4,a4,a3
    61000fac:	86ba                	mv	a3,a4
    61000fae:	670d                	lui	a4,0x3
    61000fb0:	8f55                	or	a4,a4,a3
    61000fb2:	cf98                	sw	a4,24(a5)
    61000fb4:	a811                	j	61000fc8 <dw_dmac_setBurstTransLength+0x26a>
    61000fb6:	fd843783          	ld	a5,-40(s0)
    61000fba:	4f94                	lw	a3,24(a5)
    61000fbc:	6711                	lui	a4,0x4
    61000fbe:	80070713          	addi	a4,a4,-2048 # 3800 <__stack_size+0x3000>
    61000fc2:	8f55                	or	a4,a4,a3
    61000fc4:	cf98                	sw	a4,24(a5)
    61000fc6:	0001                	nop
    61000fc8:	4785                	li	a5,1
    61000fca:	fef42423          	sw	a5,-24(s0)
    61000fce:	fec42783          	lw	a5,-20(s0)
    61000fd2:	853e                	mv	a0,a5
    61000fd4:	7422                	ld	s0,40(sp)
    61000fd6:	6145                	addi	sp,sp,48
    61000fd8:	8082                	ret

0000000061000fda <dw_dmac_setAddressInc>:
    61000fda:	7179                	addi	sp,sp,-48
    61000fdc:	f422                	sd	s0,40(sp)
    61000fde:	1800                	addi	s0,sp,48
    61000fe0:	fca43c23          	sd	a0,-40(s0)
    61000fe4:	87ae                	mv	a5,a1
    61000fe6:	8732                	mv	a4,a2
    61000fe8:	fcf42a23          	sw	a5,-44(s0)
    61000fec:	87ba                	mv	a5,a4
    61000fee:	fcf42823          	sw	a5,-48(s0)
    61000ff2:	4785                	li	a5,1
    61000ff4:	fef42623          	sw	a5,-20(s0)
    61000ff8:	fec42783          	lw	a5,-20(s0)
    61000ffc:	0007871b          	sext.w	a4,a5
    61001000:	4785                	li	a5,1
    61001002:	12f71863          	bne	a4,a5,61001132 <dw_dmac_setAddressInc+0x158>
    61001006:	fe042423          	sw	zero,-24(s0)
    6100100a:	fd442783          	lw	a5,-44(s0)
    6100100e:	2781                	sext.w	a5,a5
    61001010:	cb81                	beqz	a5,61001020 <dw_dmac_setAddressInc+0x46>
    61001012:	fd442783          	lw	a5,-44(s0)
    61001016:	0007871b          	sext.w	a4,a5
    6100101a:	4789                	li	a5,2
    6100101c:	06f71f63          	bne	a4,a5,6100109a <dw_dmac_setAddressInc+0xc0>
    61001020:	fd843783          	ld	a5,-40(s0)
    61001024:	4f9c                	lw	a5,24(a5)
    61001026:	0097d79b          	srliw	a5,a5,0x9
    6100102a:	8b8d                	andi	a5,a5,3
    6100102c:	0ff7f793          	zext.b	a5,a5
    61001030:	0007871b          	sext.w	a4,a5
    61001034:	fd042783          	lw	a5,-48(s0)
    61001038:	2781                	sext.w	a5,a5
    6100103a:	06e78063          	beq	a5,a4,6100109a <dw_dmac_setAddressInc+0xc0>
    6100103e:	fd042783          	lw	a5,-48(s0)
    61001042:	2781                	sext.w	a5,a5
    61001044:	cb89                	beqz	a5,61001056 <dw_dmac_setAddressInc+0x7c>
    61001046:	fd042783          	lw	a5,-48(s0)
    6100104a:	0007871b          	sext.w	a4,a5
    6100104e:	4785                	li	a5,1
    61001050:	00f70d63          	beq	a4,a5,6100106a <dw_dmac_setAddressInc+0x90>
    61001054:	a03d                	j	61001082 <dw_dmac_setAddressInc+0xa8>
    61001056:	fd843783          	ld	a5,-40(s0)
    6100105a:	4f98                	lw	a4,24(a5)
    6100105c:	9ff77713          	andi	a4,a4,-1537
    61001060:	cf98                	sw	a4,24(a5)
    61001062:	4785                	li	a5,1
    61001064:	fef42423          	sw	a5,-24(s0)
    61001068:	a815                	j	6100109c <dw_dmac_setAddressInc+0xc2>
    6100106a:	fd843783          	ld	a5,-40(s0)
    6100106e:	4f98                	lw	a4,24(a5)
    61001070:	9ff77713          	andi	a4,a4,-1537
    61001074:	20076713          	ori	a4,a4,512
    61001078:	cf98                	sw	a4,24(a5)
    6100107a:	4785                	li	a5,1
    6100107c:	fef42423          	sw	a5,-24(s0)
    61001080:	a831                	j	6100109c <dw_dmac_setAddressInc+0xc2>
    61001082:	fd843783          	ld	a5,-40(s0)
    61001086:	4f98                	lw	a4,24(a5)
    61001088:	9ff77713          	andi	a4,a4,-1537
    6100108c:	40076713          	ori	a4,a4,1024
    61001090:	cf98                	sw	a4,24(a5)
    61001092:	4785                	li	a5,1
    61001094:	fef42423          	sw	a5,-24(s0)
    61001098:	a011                	j	6100109c <dw_dmac_setAddressInc+0xc2>
    6100109a:	0001                	nop
    6100109c:	fd442783          	lw	a5,-44(s0)
    610010a0:	0007871b          	sext.w	a4,a5
    610010a4:	4785                	li	a5,1
    610010a6:	00f70963          	beq	a4,a5,610010b8 <dw_dmac_setAddressInc+0xde>
    610010aa:	fd442783          	lw	a5,-44(s0)
    610010ae:	0007871b          	sext.w	a4,a5
    610010b2:	4789                	li	a5,2
    610010b4:	06f71f63          	bne	a4,a5,61001132 <dw_dmac_setAddressInc+0x158>
    610010b8:	fd843783          	ld	a5,-40(s0)
    610010bc:	4f9c                	lw	a5,24(a5)
    610010be:	0077d79b          	srliw	a5,a5,0x7
    610010c2:	8b8d                	andi	a5,a5,3
    610010c4:	0ff7f793          	zext.b	a5,a5
    610010c8:	0007871b          	sext.w	a4,a5
    610010cc:	fd042783          	lw	a5,-48(s0)
    610010d0:	2781                	sext.w	a5,a5
    610010d2:	06e78063          	beq	a5,a4,61001132 <dw_dmac_setAddressInc+0x158>
    610010d6:	fd042783          	lw	a5,-48(s0)
    610010da:	2781                	sext.w	a5,a5
    610010dc:	cb89                	beqz	a5,610010ee <dw_dmac_setAddressInc+0x114>
    610010de:	fd042783          	lw	a5,-48(s0)
    610010e2:	0007871b          	sext.w	a4,a5
    610010e6:	4785                	li	a5,1
    610010e8:	00f70d63          	beq	a4,a5,61001102 <dw_dmac_setAddressInc+0x128>
    610010ec:	a03d                	j	6100111a <dw_dmac_setAddressInc+0x140>
    610010ee:	fd843783          	ld	a5,-40(s0)
    610010f2:	4f98                	lw	a4,24(a5)
    610010f4:	e7f77713          	andi	a4,a4,-385
    610010f8:	cf98                	sw	a4,24(a5)
    610010fa:	4785                	li	a5,1
    610010fc:	fef42423          	sw	a5,-24(s0)
    61001100:	a815                	j	61001134 <dw_dmac_setAddressInc+0x15a>
    61001102:	fd843783          	ld	a5,-40(s0)
    61001106:	4f98                	lw	a4,24(a5)
    61001108:	e7f77713          	andi	a4,a4,-385
    6100110c:	08076713          	ori	a4,a4,128
    61001110:	cf98                	sw	a4,24(a5)
    61001112:	4785                	li	a5,1
    61001114:	fef42423          	sw	a5,-24(s0)
    61001118:	a831                	j	61001134 <dw_dmac_setAddressInc+0x15a>
    6100111a:	fd843783          	ld	a5,-40(s0)
    6100111e:	4f98                	lw	a4,24(a5)
    61001120:	e7f77713          	andi	a4,a4,-385
    61001124:	10076713          	ori	a4,a4,256
    61001128:	cf98                	sw	a4,24(a5)
    6100112a:	4785                	li	a5,1
    6100112c:	fef42423          	sw	a5,-24(s0)
    61001130:	a011                	j	61001134 <dw_dmac_setAddressInc+0x15a>
    61001132:	0001                	nop
    61001134:	fec42783          	lw	a5,-20(s0)
    61001138:	853e                	mv	a0,a5
    6100113a:	7422                	ld	s0,40(sp)
    6100113c:	6145                	addi	sp,sp,48
    6100113e:	8082                	ret

0000000061001140 <dw_dmac_set_contigous>:
    61001140:	1101                	addi	sp,sp,-32
    61001142:	ec22                	sd	s0,24(sp)
    61001144:	1000                	addi	s0,sp,32
    61001146:	fea43423          	sd	a0,-24(s0)
    6100114a:	87ae                	mv	a5,a1
    6100114c:	fef42223          	sw	a5,-28(s0)
    61001150:	fe442783          	lw	a5,-28(s0)
    61001154:	2781                	sext.w	a5,a5
    61001156:	eb89                	bnez	a5,61001168 <dw_dmac_set_contigous+0x28>
    61001158:	fe843783          	ld	a5,-24(s0)
    6100115c:	4f94                	lw	a3,24(a5)
    6100115e:	f0000737          	lui	a4,0xf0000
    61001162:	177d                	addi	a4,a4,-1
    61001164:	8f75                	and	a4,a4,a3
    61001166:	cf98                	sw	a4,24(a5)
    61001168:	fe442783          	lw	a5,-28(s0)
    6100116c:	0007871b          	sext.w	a4,a5
    61001170:	4785                	li	a5,1
    61001172:	00f71a63          	bne	a4,a5,61001186 <dw_dmac_set_contigous+0x46>
    61001176:	fe843783          	ld	a5,-24(s0)
    6100117a:	4f94                	lw	a3,24(a5)
    6100117c:	f0000737          	lui	a4,0xf0000
    61001180:	177d                	addi	a4,a4,-1
    61001182:	8f75                	and	a4,a4,a3
    61001184:	cf98                	sw	a4,24(a5)
    61001186:	0001                	nop
    61001188:	853e                	mv	a0,a5
    6100118a:	6462                	ld	s0,24(sp)
    6100118c:	6105                	addi	sp,sp,32
    6100118e:	8082                	ret

0000000061001190 <dw_dmac_setReload>:
    61001190:	7179                	addi	sp,sp,-48
    61001192:	f422                	sd	s0,40(sp)
    61001194:	1800                	addi	s0,sp,48
    61001196:	fca43c23          	sd	a0,-40(s0)
    6100119a:	87ae                	mv	a5,a1
    6100119c:	fcf42a23          	sw	a5,-44(s0)
    610011a0:	4785                	li	a5,1
    610011a2:	fef42623          	sw	a5,-20(s0)
    610011a6:	fec42783          	lw	a5,-20(s0)
    610011aa:	0007871b          	sext.w	a4,a5
    610011ae:	4785                	li	a5,1
    610011b0:	08f71163          	bne	a4,a5,61001232 <dw_dmac_setReload+0xa2>
    610011b4:	fe042423          	sw	zero,-24(s0)
    610011b8:	fd442783          	lw	a5,-44(s0)
    610011bc:	2781                	sext.w	a5,a5
    610011be:	cb81                	beqz	a5,610011ce <dw_dmac_setReload+0x3e>
    610011c0:	fd442783          	lw	a5,-44(s0)
    610011c4:	0007871b          	sext.w	a4,a5
    610011c8:	4789                	li	a5,2
    610011ca:	02f71463          	bne	a4,a5,610011f2 <dw_dmac_setReload+0x62>
    610011ce:	fd843783          	ld	a5,-40(s0)
    610011d2:	4f94                	lw	a3,24(a5)
    610011d4:	f0000737          	lui	a4,0xf0000
    610011d8:	177d                	addi	a4,a4,-1
    610011da:	8f75                	and	a4,a4,a3
    610011dc:	cf98                	sw	a4,24(a5)
    610011de:	fd843783          	ld	a5,-40(s0)
    610011e2:	43b4                	lw	a3,64(a5)
    610011e4:	40000737          	lui	a4,0x40000
    610011e8:	8f55                	or	a4,a4,a3
    610011ea:	c3b8                	sw	a4,64(a5)
    610011ec:	4785                	li	a5,1
    610011ee:	fef42423          	sw	a5,-24(s0)
    610011f2:	fd442783          	lw	a5,-44(s0)
    610011f6:	0007871b          	sext.w	a4,a5
    610011fa:	4785                	li	a5,1
    610011fc:	00f70963          	beq	a4,a5,6100120e <dw_dmac_setReload+0x7e>
    61001200:	fd442783          	lw	a5,-44(s0)
    61001204:	0007871b          	sext.w	a4,a5
    61001208:	4789                	li	a5,2
    6100120a:	02f71463          	bne	a4,a5,61001232 <dw_dmac_setReload+0xa2>
    6100120e:	fd843783          	ld	a5,-40(s0)
    61001212:	4f94                	lw	a3,24(a5)
    61001214:	f0000737          	lui	a4,0xf0000
    61001218:	177d                	addi	a4,a4,-1
    6100121a:	8f75                	and	a4,a4,a3
    6100121c:	cf98                	sw	a4,24(a5)
    6100121e:	fd843783          	ld	a5,-40(s0)
    61001222:	43b4                	lw	a3,64(a5)
    61001224:	80000737          	lui	a4,0x80000
    61001228:	8f55                	or	a4,a4,a3
    6100122a:	c3b8                	sw	a4,64(a5)
    6100122c:	4785                	li	a5,1
    6100122e:	fef42423          	sw	a5,-24(s0)
    61001232:	fec42783          	lw	a5,-20(s0)
    61001236:	853e                	mv	a0,a5
    61001238:	7422                	ld	s0,40(sp)
    6100123a:	6145                	addi	sp,sp,48
    6100123c:	8082                	ret

000000006100123e <dw_dmac_setSingle>:
    6100123e:	7179                	addi	sp,sp,-48
    61001240:	f422                	sd	s0,40(sp)
    61001242:	1800                	addi	s0,sp,48
    61001244:	fca43c23          	sd	a0,-40(s0)
    61001248:	87ae                	mv	a5,a1
    6100124a:	fcf42a23          	sw	a5,-44(s0)
    6100124e:	4785                	li	a5,1
    61001250:	fef42423          	sw	a5,-24(s0)
    61001254:	fe842783          	lw	a5,-24(s0)
    61001258:	0007871b          	sext.w	a4,a5
    6100125c:	4785                	li	a5,1
    6100125e:	08f71163          	bne	a4,a5,610012e0 <dw_dmac_setSingle+0xa2>
    61001262:	fe042623          	sw	zero,-20(s0)
    61001266:	a885                	j	610012d6 <dw_dmac_setSingle+0x98>
    61001268:	fe042223          	sw	zero,-28(s0)
    6100126c:	fd442783          	lw	a5,-44(s0)
    61001270:	2781                	sext.w	a5,a5
    61001272:	cb81                	beqz	a5,61001282 <dw_dmac_setSingle+0x44>
    61001274:	fd442783          	lw	a5,-44(s0)
    61001278:	0007871b          	sext.w	a4,a5
    6100127c:	4789                	li	a5,2
    6100127e:	00f71d63          	bne	a4,a5,61001298 <dw_dmac_setSingle+0x5a>
    61001282:	fd843783          	ld	a5,-40(s0)
    61001286:	43b4                	lw	a3,64(a5)
    61001288:	c0000737          	lui	a4,0xc0000
    6100128c:	177d                	addi	a4,a4,-1
    6100128e:	8f75                	and	a4,a4,a3
    61001290:	c3b8                	sw	a4,64(a5)
    61001292:	4785                	li	a5,1
    61001294:	fef42223          	sw	a5,-28(s0)
    61001298:	fd442783          	lw	a5,-44(s0)
    6100129c:	0007871b          	sext.w	a4,a5
    610012a0:	4785                	li	a5,1
    610012a2:	00f70963          	beq	a4,a5,610012b4 <dw_dmac_setSingle+0x76>
    610012a6:	fd442783          	lw	a5,-44(s0)
    610012aa:	0007871b          	sext.w	a4,a5
    610012ae:	4789                	li	a5,2
    610012b0:	00f71e63          	bne	a4,a5,610012cc <dw_dmac_setSingle+0x8e>
    610012b4:	fd843783          	ld	a5,-40(s0)
    610012b8:	43b4                	lw	a3,64(a5)
    610012ba:	80000737          	lui	a4,0x80000
    610012be:	fff74713          	not	a4,a4
    610012c2:	8f75                	and	a4,a4,a3
    610012c4:	c3b8                	sw	a4,64(a5)
    610012c6:	4785                	li	a5,1
    610012c8:	fef42223          	sw	a5,-28(s0)
    610012cc:	fec42783          	lw	a5,-20(s0)
    610012d0:	2785                	addiw	a5,a5,1
    610012d2:	fef42623          	sw	a5,-20(s0)
    610012d6:	fec42783          	lw	a5,-20(s0)
    610012da:	2781                	sext.w	a5,a5
    610012dc:	f8f056e3          	blez	a5,61001268 <dw_dmac_setSingle+0x2a>
    610012e0:	fe842783          	lw	a5,-24(s0)
    610012e4:	853e                	mv	a0,a5
    610012e6:	7422                	ld	s0,40(sp)
    610012e8:	6145                	addi	sp,sp,48
    610012ea:	8082                	ret

00000000610012ec <dw_dmac_setLlpEnable>:
    610012ec:	7179                	addi	sp,sp,-48
    610012ee:	f422                	sd	s0,40(sp)
    610012f0:	1800                	addi	s0,sp,48
    610012f2:	fca43c23          	sd	a0,-40(s0)
    610012f6:	87ae                	mv	a5,a1
    610012f8:	fcf42a23          	sw	a5,-44(s0)
    610012fc:	4785                	li	a5,1
    610012fe:	fef42423          	sw	a5,-24(s0)
    61001302:	fe842783          	lw	a5,-24(s0)
    61001306:	0007871b          	sext.w	a4,a5
    6100130a:	4785                	li	a5,1
    6100130c:	08f71e63          	bne	a4,a5,610013a8 <dw_dmac_setLlpEnable+0xbc>
    61001310:	fe042623          	sw	zero,-20(s0)
    61001314:	a069                	j	6100139e <dw_dmac_setLlpEnable+0xb2>
    61001316:	fe042223          	sw	zero,-28(s0)
    6100131a:	fd442783          	lw	a5,-44(s0)
    6100131e:	2781                	sext.w	a5,a5
    61001320:	cb81                	beqz	a5,61001330 <dw_dmac_setLlpEnable+0x44>
    61001322:	fd442783          	lw	a5,-44(s0)
    61001326:	0007871b          	sext.w	a4,a5
    6100132a:	4789                	li	a5,2
    6100132c:	02f71463          	bne	a4,a5,61001354 <dw_dmac_setLlpEnable+0x68>
    61001330:	fd843783          	ld	a5,-40(s0)
    61001334:	43b4                	lw	a3,64(a5)
    61001336:	c0000737          	lui	a4,0xc0000
    6100133a:	177d                	addi	a4,a4,-1
    6100133c:	8f75                	and	a4,a4,a3
    6100133e:	c3b8                	sw	a4,64(a5)
    61001340:	fd843783          	ld	a5,-40(s0)
    61001344:	4f94                	lw	a3,24(a5)
    61001346:	10000737          	lui	a4,0x10000
    6100134a:	8f55                	or	a4,a4,a3
    6100134c:	cf98                	sw	a4,24(a5)
    6100134e:	4785                	li	a5,1
    61001350:	fef42223          	sw	a5,-28(s0)
    61001354:	fd442783          	lw	a5,-44(s0)
    61001358:	0007871b          	sext.w	a4,a5
    6100135c:	4785                	li	a5,1
    6100135e:	00f70963          	beq	a4,a5,61001370 <dw_dmac_setLlpEnable+0x84>
    61001362:	fd442783          	lw	a5,-44(s0)
    61001366:	0007871b          	sext.w	a4,a5
    6100136a:	4789                	li	a5,2
    6100136c:	02f71463          	bne	a4,a5,61001394 <dw_dmac_setLlpEnable+0xa8>
    61001370:	fd843783          	ld	a5,-40(s0)
    61001374:	43b4                	lw	a3,64(a5)
    61001376:	c0000737          	lui	a4,0xc0000
    6100137a:	177d                	addi	a4,a4,-1
    6100137c:	8f75                	and	a4,a4,a3
    6100137e:	c3b8                	sw	a4,64(a5)
    61001380:	fd843783          	ld	a5,-40(s0)
    61001384:	4f94                	lw	a3,24(a5)
    61001386:	08000737          	lui	a4,0x8000
    6100138a:	8f55                	or	a4,a4,a3
    6100138c:	cf98                	sw	a4,24(a5)
    6100138e:	4785                	li	a5,1
    61001390:	fef42223          	sw	a5,-28(s0)
    61001394:	fec42783          	lw	a5,-20(s0)
    61001398:	2785                	addiw	a5,a5,1
    6100139a:	fef42623          	sw	a5,-20(s0)
    6100139e:	fec42783          	lw	a5,-20(s0)
    610013a2:	2781                	sext.w	a5,a5
    610013a4:	f6f059e3          	blez	a5,61001316 <dw_dmac_setLlpEnable+0x2a>
    610013a8:	fe842783          	lw	a5,-24(s0)
    610013ac:	853e                	mv	a0,a5
    610013ae:	7422                	ld	s0,40(sp)
    610013b0:	6145                	addi	sp,sp,48
    610013b2:	8082                	ret

00000000610013b4 <dw_dmac_checkChannelBusy>:
    610013b4:	7179                	addi	sp,sp,-48
    610013b6:	f422                	sd	s0,40(sp)
    610013b8:	1800                	addi	s0,sp,48
    610013ba:	fca43c23          	sd	a0,-40(s0)
    610013be:	fe0407a3          	sb	zero,-17(s0)
    610013c2:	fd843783          	ld	a5,-40(s0)
    610013c6:	0e07a783          	lw	a5,224(a5)
    610013ca:	2781                	sext.w	a5,a5
    610013cc:	fef407a3          	sb	a5,-17(s0)
    610013d0:	fef44783          	lbu	a5,-17(s0)
    610013d4:	0ff7f793          	zext.b	a5,a5
    610013d8:	e399                	bnez	a5,610013de <dw_dmac_checkChannelBusy+0x2a>
    610013da:	4781                	li	a5,0
    610013dc:	a011                	j	610013e0 <dw_dmac_checkChannelBusy+0x2c>
    610013de:	4785                	li	a5,1
    610013e0:	853e                	mv	a0,a5
    610013e2:	7422                	ld	s0,40(sp)
    610013e4:	6145                	addi	sp,sp,48
    610013e6:	8082                	ret

00000000610013e8 <dam_handshake_interfance>:
    610013e8:	1101                	addi	sp,sp,-32
    610013ea:	ec22                	sd	s0,24(sp)
    610013ec:	1000                	addi	s0,sp,32
    610013ee:	fea43423          	sd	a0,-24(s0)
    610013f2:	87ae                	mv	a5,a1
    610013f4:	fef42223          	sw	a5,-28(s0)
    610013f8:	fe442783          	lw	a5,-28(s0)
    610013fc:	8bbd                	andi	a5,a5,15
    610013fe:	0ff7f713          	zext.b	a4,a5
    61001402:	fe843783          	ld	a5,-24(s0)
    61001406:	8b3d                	andi	a4,a4,15
    61001408:	0077171b          	slliw	a4,a4,0x7
    6100140c:	43f4                	lw	a3,68(a5)
    6100140e:	87f6f693          	andi	a3,a3,-1921
    61001412:	8f55                	or	a4,a4,a3
    61001414:	c3f8                	sw	a4,68(a5)
    61001416:	fe442783          	lw	a5,-28(s0)
    6100141a:	8bbd                	andi	a5,a5,15
    6100141c:	0ff7f713          	zext.b	a4,a5
    61001420:	fe843783          	ld	a5,-24(s0)
    61001424:	8b3d                	andi	a4,a4,15
    61001426:	00b7171b          	slliw	a4,a4,0xb
    6100142a:	43f0                	lw	a2,68(a5)
    6100142c:	76e1                	lui	a3,0xffff8
    6100142e:	7ff68693          	addi	a3,a3,2047 # ffffffffffff87ff <_sp+0xffffffff9efd87ff>
    61001432:	8ef1                	and	a3,a3,a2
    61001434:	8f55                	or	a4,a4,a3
    61001436:	c3f8                	sw	a4,68(a5)
    61001438:	0001                	nop
    6100143a:	853e                	mv	a0,a5
    6100143c:	6462                	ld	s0,24(sp)
    6100143e:	6105                	addi	sp,sp,32
    61001440:	8082                	ret

0000000061001442 <write_To_OCM>:
    61001442:	7139                	addi	sp,sp,-64
    61001444:	fc22                	sd	s0,56(sp)
    61001446:	0080                	addi	s0,sp,64
    61001448:	fca43c23          	sd	a0,-40(s0)
    6100144c:	87ae                	mv	a5,a1
    6100144e:	fcc43423          	sd	a2,-56(s0)
    61001452:	fcf42a23          	sw	a5,-44(s0)
    61001456:	fd442783          	lw	a5,-44(s0)
    6100145a:	2781                	sext.w	a5,a5
    6100145c:	c3b9                	beqz	a5,610014a2 <write_To_OCM+0x60>
    6100145e:	fe042623          	sw	zero,-20(s0)
    61001462:	a035                	j	6100148e <write_To_OCM+0x4c>
    61001464:	fd843703          	ld	a4,-40(s0)
    61001468:	00470793          	addi	a5,a4,4 # 8000004 <__stack_size+0x7fff804>
    6100146c:	fcf43c23          	sd	a5,-40(s0)
    61001470:	fc843783          	ld	a5,-56(s0)
    61001474:	00478693          	addi	a3,a5,4
    61001478:	fcd43423          	sd	a3,-56(s0)
    6100147c:	4318                	lw	a4,0(a4)
    6100147e:	c398                	sw	a4,0(a5)
    61001480:	fec42783          	lw	a5,-20(s0)
    61001484:	2781                	sext.w	a5,a5
    61001486:	2785                	addiw	a5,a5,1
    61001488:	2781                	sext.w	a5,a5
    6100148a:	fef42623          	sw	a5,-20(s0)
    6100148e:	fec42783          	lw	a5,-20(s0)
    61001492:	0007871b          	sext.w	a4,a5
    61001496:	fd442783          	lw	a5,-44(s0)
    6100149a:	2781                	sext.w	a5,a5
    6100149c:	fcf764e3          	bltu	a4,a5,61001464 <write_To_OCM+0x22>
    610014a0:	a011                	j	610014a4 <write_To_OCM+0x62>
    610014a2:	0001                	nop
    610014a4:	7462                	ld	s0,56(sp)
    610014a6:	6121                	addi	sp,sp,64
    610014a8:	8082                	ret

00000000610014aa <write_iic_data>:
    610014aa:	715d                	addi	sp,sp,-80
    610014ac:	e486                	sd	ra,72(sp)
    610014ae:	e0a2                	sd	s0,64(sp)
    610014b0:	fc26                	sd	s1,56(sp)
    610014b2:	0880                	addi	s0,sp,80
    610014b4:	8e2a                	mv	t3,a0
    610014b6:	852e                	mv	a0,a1
    610014b8:	85f2                	mv	a1,t3
    610014ba:	fab42e23          	sw	a1,-68(s0)
    610014be:	85aa                	mv	a1,a0
    610014c0:	fab42c23          	sw	a1,-72(s0)
    610014c4:	858a                	mv	a1,sp
    610014c6:	84ae                	mv	s1,a1
    610014c8:	fc042623          	sw	zero,-52(s0)
    610014cc:	fc042423          	sw	zero,-56(s0)
    610014d0:	fb842583          	lw	a1,-72(s0)
    610014d4:	02059513          	slli	a0,a1,0x20
    610014d8:	9101                	srli	a0,a0,0x20
    610014da:	157d                	addi	a0,a0,-1
    610014dc:	fca43c23          	sd	a0,-40(s0)
    610014e0:	02059513          	slli	a0,a1,0x20
    610014e4:	9101                	srli	a0,a0,0x20
    610014e6:	832a                	mv	t1,a0
    610014e8:	4381                	li	t2,0
    610014ea:	03b35513          	srli	a0,t1,0x3b
    610014ee:	00539693          	slli	a3,t2,0x5
    610014f2:	8ec9                	or	a3,a3,a0
    610014f4:	00531613          	slli	a2,t1,0x5
    610014f8:	02059693          	slli	a3,a1,0x20
    610014fc:	9281                	srli	a3,a3,0x20
    610014fe:	8836                	mv	a6,a3
    61001500:	4881                	li	a7,0
    61001502:	03b85693          	srli	a3,a6,0x3b
    61001506:	00589793          	slli	a5,a7,0x5
    6100150a:	8fd5                	or	a5,a5,a3
    6100150c:	00581713          	slli	a4,a6,0x5
    61001510:	02059793          	slli	a5,a1,0x20
    61001514:	9381                	srli	a5,a5,0x20
    61001516:	078a                	slli	a5,a5,0x2
    61001518:	07bd                	addi	a5,a5,15
    6100151a:	8391                	srli	a5,a5,0x4
    6100151c:	0792                	slli	a5,a5,0x4
    6100151e:	40f10133          	sub	sp,sp,a5
    61001522:	878a                	mv	a5,sp
    61001524:	078d                	addi	a5,a5,3
    61001526:	8389                	srli	a5,a5,0x2
    61001528:	078a                	slli	a5,a5,0x2
    6100152a:	fcf43823          	sd	a5,-48(s0)
    6100152e:	fbc42783          	lw	a5,-68(s0)
    61001532:	2781                	sext.w	a5,a5
    61001534:	efc9                	bnez	a5,610015ce <write_iic_data+0x124>
    61001536:	fc042623          	sw	zero,-52(s0)
    6100153a:	a885                	j	610015aa <write_iic_data+0x100>
    6100153c:	fcc42783          	lw	a5,-52(s0)
    61001540:	2781                	sext.w	a5,a5
    61001542:	fcc42703          	lw	a4,-52(s0)
    61001546:	2701                	sext.w	a4,a4
    61001548:	fd043683          	ld	a3,-48(s0)
    6100154c:	1782                	slli	a5,a5,0x20
    6100154e:	9381                	srli	a5,a5,0x20
    61001550:	078a                	slli	a5,a5,0x2
    61001552:	97b6                	add	a5,a5,a3
    61001554:	c398                	sw	a4,0(a5)
    61001556:	fb842783          	lw	a5,-72(s0)
    6100155a:	37fd                	addiw	a5,a5,-1
    6100155c:	0007871b          	sext.w	a4,a5
    61001560:	fcc42783          	lw	a5,-52(s0)
    61001564:	2781                	sext.w	a5,a5
    61001566:	02f71b63          	bne	a4,a5,6100159c <write_iic_data+0xf2>
    6100156a:	fcc42783          	lw	a5,-52(s0)
    6100156e:	2781                	sext.w	a5,a5
    61001570:	fd043703          	ld	a4,-48(s0)
    61001574:	1782                	slli	a5,a5,0x20
    61001576:	9381                	srli	a5,a5,0x20
    61001578:	078a                	slli	a5,a5,0x2
    6100157a:	97ba                	add	a5,a5,a4
    6100157c:	439c                	lw	a5,0(a5)
    6100157e:	0007871b          	sext.w	a4,a5
    61001582:	fcc42783          	lw	a5,-52(s0)
    61001586:	2781                	sext.w	a5,a5
    61001588:	20076713          	ori	a4,a4,512
    6100158c:	2701                	sext.w	a4,a4
    6100158e:	fd043683          	ld	a3,-48(s0)
    61001592:	1782                	slli	a5,a5,0x20
    61001594:	9381                	srli	a5,a5,0x20
    61001596:	078a                	slli	a5,a5,0x2
    61001598:	97b6                	add	a5,a5,a3
    6100159a:	c398                	sw	a4,0(a5)
    6100159c:	fcc42783          	lw	a5,-52(s0)
    610015a0:	2781                	sext.w	a5,a5
    610015a2:	2785                	addiw	a5,a5,1
    610015a4:	2781                	sext.w	a5,a5
    610015a6:	fcf42623          	sw	a5,-52(s0)
    610015aa:	fcc42783          	lw	a5,-52(s0)
    610015ae:	0007871b          	sext.w	a4,a5
    610015b2:	fb842783          	lw	a5,-72(s0)
    610015b6:	2781                	sext.w	a5,a5
    610015b8:	f8f762e3          	bltu	a4,a5,6100153c <write_iic_data+0x92>
    610015bc:	fb842783          	lw	a5,-72(s0)
    610015c0:	61030637          	lui	a2,0x61030
    610015c4:	85be                	mv	a1,a5
    610015c6:	fd043503          	ld	a0,-48(s0)
    610015ca:	e79ff0ef          	jal	ra,61001442 <write_To_OCM>
    610015ce:	fbc42783          	lw	a5,-68(s0)
    610015d2:	0007871b          	sext.w	a4,a5
    610015d6:	4789                	li	a5,2
    610015d8:	08f71463          	bne	a4,a5,61001660 <write_iic_data+0x1b6>
    610015dc:	fc042623          	sw	zero,-52(s0)
    610015e0:	a02d                	j	6100160a <write_iic_data+0x160>
    610015e2:	fcc42783          	lw	a5,-52(s0)
    610015e6:	2781                	sext.w	a5,a5
    610015e8:	fcc42703          	lw	a4,-52(s0)
    610015ec:	2701                	sext.w	a4,a4
    610015ee:	fd043683          	ld	a3,-48(s0)
    610015f2:	1782                	slli	a5,a5,0x20
    610015f4:	9381                	srli	a5,a5,0x20
    610015f6:	078a                	slli	a5,a5,0x2
    610015f8:	97b6                	add	a5,a5,a3
    610015fa:	c398                	sw	a4,0(a5)
    610015fc:	fcc42783          	lw	a5,-52(s0)
    61001600:	2781                	sext.w	a5,a5
    61001602:	2785                	addiw	a5,a5,1
    61001604:	2781                	sext.w	a5,a5
    61001606:	fcf42623          	sw	a5,-52(s0)
    6100160a:	fcc42783          	lw	a5,-52(s0)
    6100160e:	0007871b          	sext.w	a4,a5
    61001612:	fb842783          	lw	a5,-72(s0)
    61001616:	2781                	sext.w	a5,a5
    61001618:	fcf765e3          	bltu	a4,a5,610015e2 <write_iic_data+0x138>
    6100161c:	fcc42783          	lw	a5,-52(s0)
    61001620:	2781                	sext.w	a5,a5
    61001622:	fd043703          	ld	a4,-48(s0)
    61001626:	1782                	slli	a5,a5,0x20
    61001628:	9381                	srli	a5,a5,0x20
    6100162a:	078a                	slli	a5,a5,0x2
    6100162c:	97ba                	add	a5,a5,a4
    6100162e:	439c                	lw	a5,0(a5)
    61001630:	0007871b          	sext.w	a4,a5
    61001634:	fcc42783          	lw	a5,-52(s0)
    61001638:	2781                	sext.w	a5,a5
    6100163a:	20076713          	ori	a4,a4,512
    6100163e:	2701                	sext.w	a4,a4
    61001640:	fd043683          	ld	a3,-48(s0)
    61001644:	1782                	slli	a5,a5,0x20
    61001646:	9381                	srli	a5,a5,0x20
    61001648:	078a                	slli	a5,a5,0x2
    6100164a:	97b6                	add	a5,a5,a3
    6100164c:	c398                	sw	a4,0(a5)
    6100164e:	fb842783          	lw	a5,-72(s0)
    61001652:	61030637          	lui	a2,0x61030
    61001656:	85be                	mv	a1,a5
    61001658:	fd043503          	ld	a0,-48(s0)
    6100165c:	de7ff0ef          	jal	ra,61001442 <write_To_OCM>
    61001660:	8126                	mv	sp,s1
    61001662:	0001                	nop
    61001664:	fb040113          	addi	sp,s0,-80
    61001668:	60a6                	ld	ra,72(sp)
    6100166a:	6406                	ld	s0,64(sp)
    6100166c:	74e2                	ld	s1,56(sp)
    6100166e:	6161                	addi	sp,sp,80
    61001670:	8082                	ret

0000000061001672 <i2c_dma_data_level>:
    61001672:	1101                	addi	sp,sp,-32
    61001674:	ec22                	sd	s0,24(sp)
    61001676:	1000                	addi	s0,sp,32
    61001678:	fea43423          	sd	a0,-24(s0)
    6100167c:	87ae                	mv	a5,a1
    6100167e:	8732                	mv	a4,a2
    61001680:	fef403a3          	sb	a5,-25(s0)
    61001684:	87ba                	mv	a5,a4
    61001686:	fef40323          	sb	a5,-26(s0)
    6100168a:	fe744783          	lbu	a5,-25(s0)
    6100168e:	0007871b          	sext.w	a4,a5
    61001692:	fe843783          	ld	a5,-24(s0)
    61001696:	08e7a623          	sw	a4,140(a5)
    6100169a:	fe644783          	lbu	a5,-26(s0)
    6100169e:	0007871b          	sext.w	a4,a5
    610016a2:	fe843783          	ld	a5,-24(s0)
    610016a6:	08e7a823          	sw	a4,144(a5)
    610016aa:	0001                	nop
    610016ac:	6462                	ld	s0,24(sp)
    610016ae:	6105                	addi	sp,sp,32
    610016b0:	8082                	ret

00000000610016b2 <i2c_dma_tx_enable>:
    610016b2:	1101                	addi	sp,sp,-32
    610016b4:	ec22                	sd	s0,24(sp)
    610016b6:	1000                	addi	s0,sp,32
    610016b8:	fea43423          	sd	a0,-24(s0)
    610016bc:	fe843783          	ld	a5,-24(s0)
    610016c0:	0887a703          	lw	a4,136(a5)
    610016c4:	00276713          	ori	a4,a4,2
    610016c8:	08e7a423          	sw	a4,136(a5)
    610016cc:	0001                	nop
    610016ce:	6462                	ld	s0,24(sp)
    610016d0:	6105                	addi	sp,sp,32
    610016d2:	8082                	ret

00000000610016d4 <i2c_dma_rx_enable>:
    610016d4:	1101                	addi	sp,sp,-32
    610016d6:	ec22                	sd	s0,24(sp)
    610016d8:	1000                	addi	s0,sp,32
    610016da:	fea43423          	sd	a0,-24(s0)
    610016de:	fe843783          	ld	a5,-24(s0)
    610016e2:	0887a703          	lw	a4,136(a5)
    610016e6:	00176713          	ori	a4,a4,1
    610016ea:	08e7a423          	sw	a4,136(a5)
    610016ee:	0001                	nop
    610016f0:	6462                	ld	s0,24(sp)
    610016f2:	6105                	addi	sp,sp,32
    610016f4:	8082                	ret

00000000610016f6 <I2C_dma_Init>:
    610016f6:	7179                	addi	sp,sp,-48
    610016f8:	f406                	sd	ra,40(sp)
    610016fa:	f022                	sd	s0,32(sp)
    610016fc:	1800                	addi	s0,sp,48
    610016fe:	fea43423          	sd	a0,-24(s0)
    61001702:	88ae                	mv	a7,a1
    61001704:	8532                	mv	a0,a2
    61001706:	85b6                	mv	a1,a3
    61001708:	863a                	mv	a2,a4
    6100170a:	86be                	mv	a3,a5
    6100170c:	8742                	mv	a4,a6
    6100170e:	87c6                	mv	a5,a7
    61001710:	fef42223          	sw	a5,-28(s0)
    61001714:	87aa                	mv	a5,a0
    61001716:	fef42023          	sw	a5,-32(s0)
    6100171a:	87ae                	mv	a5,a1
    6100171c:	fcf40fa3          	sb	a5,-33(s0)
    61001720:	87b2                	mv	a5,a2
    61001722:	fcf40f23          	sb	a5,-34(s0)
    61001726:	87b6                	mv	a5,a3
    61001728:	fcf42c23          	sw	a5,-40(s0)
    6100172c:	87ba                	mv	a5,a4
    6100172e:	fcf41e23          	sh	a5,-36(s0)
    61001732:	fe843503          	ld	a0,-24(s0)
    61001736:	f21fe0ef          	jal	ra,61000656 <dw_dmac_setChannelConfig>
    6100173a:	fe442783          	lw	a5,-28(s0)
    6100173e:	2781                	sext.w	a5,a5
    61001740:	efcd                	bnez	a5,610017fa <I2C_dma_Init+0x104>
    61001742:	fe042783          	lw	a5,-32(s0)
    61001746:	2781                	sext.w	a5,a5
    61001748:	efa9                	bnez	a5,610017a2 <I2C_dma_Init+0xac>
    6100174a:	f84147b7          	lui	a5,0xf8414
    6100174e:	01078613          	addi	a2,a5,16 # fffffffff8414010 <_sp+0xffffffff973f4010>
    61001752:	4585                	li	a1,1
    61001754:	fe843503          	ld	a0,-24(s0)
    61001758:	e8ffe0ef          	jal	ra,610005e6 <dw_dmac_setAddress>
    6100175c:	4581                	li	a1,0
    6100175e:	fe843503          	ld	a0,-24(s0)
    61001762:	c87ff0ef          	jal	ra,610013e8 <dam_handshake_interfance>
    61001766:	4585                	li	a1,1
    61001768:	fe843503          	ld	a0,-24(s0)
    6100176c:	a90ff0ef          	jal	ra,610009fc <dw_dmac_setMemPeriphFlowCtl>
    61001770:	4609                	li	a2,2
    61001772:	4585                	li	a1,1
    61001774:	fe843503          	ld	a0,-24(s0)
    61001778:	863ff0ef          	jal	ra,61000fda <dw_dmac_setAddressInc>
    6100177c:	3e1057b7          	lui	a5,0x3e105
    61001780:	00279513          	slli	a0,a5,0x2
    61001784:	f2fff0ef          	jal	ra,610016b2 <i2c_dma_tx_enable>
    61001788:	fde44703          	lbu	a4,-34(s0)
    6100178c:	fdf44783          	lbu	a5,-33(s0)
    61001790:	863a                	mv	a2,a4
    61001792:	85be                	mv	a1,a5
    61001794:	3e1057b7          	lui	a5,0x3e105
    61001798:	00279513          	slli	a0,a5,0x2
    6100179c:	ed7ff0ef          	jal	ra,61001672 <i2c_dma_data_level>
    610017a0:	a23d                	j	610018ce <I2C_dma_Init+0x1d8>
    610017a2:	f84147b7          	lui	a5,0xf8414
    610017a6:	01078613          	addi	a2,a5,16 # fffffffff8414010 <_sp+0xffffffff973f4010>
    610017aa:	4581                	li	a1,0
    610017ac:	fe843503          	ld	a0,-24(s0)
    610017b0:	e37fe0ef          	jal	ra,610005e6 <dw_dmac_setAddress>
    610017b4:	4585                	li	a1,1
    610017b6:	fe843503          	ld	a0,-24(s0)
    610017ba:	c2fff0ef          	jal	ra,610013e8 <dam_handshake_interfance>
    610017be:	4589                	li	a1,2
    610017c0:	fe843503          	ld	a0,-24(s0)
    610017c4:	a38ff0ef          	jal	ra,610009fc <dw_dmac_setMemPeriphFlowCtl>
    610017c8:	4609                	li	a2,2
    610017ca:	4581                	li	a1,0
    610017cc:	fe843503          	ld	a0,-24(s0)
    610017d0:	80bff0ef          	jal	ra,61000fda <dw_dmac_setAddressInc>
    610017d4:	3e1057b7          	lui	a5,0x3e105
    610017d8:	00279513          	slli	a0,a5,0x2
    610017dc:	ef9ff0ef          	jal	ra,610016d4 <i2c_dma_rx_enable>
    610017e0:	fde44703          	lbu	a4,-34(s0)
    610017e4:	fdf44783          	lbu	a5,-33(s0)
    610017e8:	863a                	mv	a2,a4
    610017ea:	85be                	mv	a1,a5
    610017ec:	3e1057b7          	lui	a5,0x3e105
    610017f0:	00279513          	slli	a0,a5,0x2
    610017f4:	e7fff0ef          	jal	ra,61001672 <i2c_dma_data_level>
    610017f8:	a8d9                	j	610018ce <I2C_dma_Init+0x1d8>
    610017fa:	fe442783          	lw	a5,-28(s0)
    610017fe:	0007871b          	sext.w	a4,a5
    61001802:	4785                	li	a5,1
    61001804:	0cf71563          	bne	a4,a5,610018ce <I2C_dma_Init+0x1d8>
    61001808:	fe042783          	lw	a5,-32(s0)
    6100180c:	2781                	sext.w	a5,a5
    6100180e:	e3ad                	bnez	a5,61001870 <I2C_dma_Init+0x17a>
    61001810:	f84157b7          	lui	a5,0xf8415
    61001814:	01078613          	addi	a2,a5,16 # fffffffff8415010 <_sp+0xffffffff973f5010>
    61001818:	4585                	li	a1,1
    6100181a:	fe843503          	ld	a0,-24(s0)
    6100181e:	dc9fe0ef          	jal	ra,610005e6 <dw_dmac_setAddress>
    61001822:	4589                	li	a1,2
    61001824:	fe843503          	ld	a0,-24(s0)
    61001828:	bc1ff0ef          	jal	ra,610013e8 <dam_handshake_interfance>
    6100182c:	4585                	li	a1,1
    6100182e:	fe843503          	ld	a0,-24(s0)
    61001832:	9caff0ef          	jal	ra,610009fc <dw_dmac_setMemPeriphFlowCtl>
    61001836:	4609                	li	a2,2
    61001838:	4585                	li	a1,1
    6100183a:	fe843503          	ld	a0,-24(s0)
    6100183e:	f9cff0ef          	jal	ra,61000fda <dw_dmac_setAddressInc>
    61001842:	000f87b7          	lui	a5,0xf8
    61001846:	41578793          	addi	a5,a5,1045 # f8415 <__stack_size+0xf7c15>
    6100184a:	00c79513          	slli	a0,a5,0xc
    6100184e:	e65ff0ef          	jal	ra,610016b2 <i2c_dma_tx_enable>
    61001852:	fde44703          	lbu	a4,-34(s0)
    61001856:	fdf44783          	lbu	a5,-33(s0)
    6100185a:	863a                	mv	a2,a4
    6100185c:	85be                	mv	a1,a5
    6100185e:	000f87b7          	lui	a5,0xf8
    61001862:	41578793          	addi	a5,a5,1045 # f8415 <__stack_size+0xf7c15>
    61001866:	00c79513          	slli	a0,a5,0xc
    6100186a:	e09ff0ef          	jal	ra,61001672 <i2c_dma_data_level>
    6100186e:	a085                	j	610018ce <I2C_dma_Init+0x1d8>
    61001870:	f84157b7          	lui	a5,0xf8415
    61001874:	01078613          	addi	a2,a5,16 # fffffffff8415010 <_sp+0xffffffff973f5010>
    61001878:	4581                	li	a1,0
    6100187a:	fe843503          	ld	a0,-24(s0)
    6100187e:	d69fe0ef          	jal	ra,610005e6 <dw_dmac_setAddress>
    61001882:	458d                	li	a1,3
    61001884:	fe843503          	ld	a0,-24(s0)
    61001888:	b61ff0ef          	jal	ra,610013e8 <dam_handshake_interfance>
    6100188c:	4589                	li	a1,2
    6100188e:	fe843503          	ld	a0,-24(s0)
    61001892:	96aff0ef          	jal	ra,610009fc <dw_dmac_setMemPeriphFlowCtl>
    61001896:	4609                	li	a2,2
    61001898:	4581                	li	a1,0
    6100189a:	fe843503          	ld	a0,-24(s0)
    6100189e:	f3cff0ef          	jal	ra,61000fda <dw_dmac_setAddressInc>
    610018a2:	000f87b7          	lui	a5,0xf8
    610018a6:	41578793          	addi	a5,a5,1045 # f8415 <__stack_size+0xf7c15>
    610018aa:	00c79513          	slli	a0,a5,0xc
    610018ae:	e27ff0ef          	jal	ra,610016d4 <i2c_dma_rx_enable>
    610018b2:	fde44703          	lbu	a4,-34(s0)
    610018b6:	fdf44783          	lbu	a5,-33(s0)
    610018ba:	863a                	mv	a2,a4
    610018bc:	85be                	mv	a1,a5
    610018be:	000f87b7          	lui	a5,0xf8
    610018c2:	41578793          	addi	a5,a5,1045 # f8415 <__stack_size+0xf7c15>
    610018c6:	00c79513          	slli	a0,a5,0xc
    610018ca:	da9ff0ef          	jal	ra,61001672 <i2c_dma_data_level>
    610018ce:	4609                	li	a2,2
    610018d0:	4589                	li	a1,2
    610018d2:	fe843503          	ld	a0,-24(s0)
    610018d6:	9fcff0ef          	jal	ra,61000ad2 <dw_dmac_setTransWidth>
    610018da:	fdc45783          	lhu	a5,-36(s0)
    610018de:	85be                	mv	a1,a5
    610018e0:	fe843503          	ld	a0,-24(s0)
    610018e4:	c0cff0ef          	jal	ra,61000cf0 <dw_dmac_setBlockTransSize>
    610018e8:	fd842783          	lw	a5,-40(s0)
    610018ec:	85be                	mv	a1,a5
    610018ee:	fe843503          	ld	a0,-24(s0)
    610018f2:	f3bfe0ef          	jal	ra,6100082c <dw_dmac_setTransferType>
    610018f6:	4601                	li	a2,0
    610018f8:	4589                	li	a1,2
    610018fa:	fe843503          	ld	a0,-24(s0)
    610018fe:	c60ff0ef          	jal	ra,61000d5e <dw_dmac_setBurstTransLength>
    61001902:	0001                	nop
    61001904:	70a2                	ld	ra,40(sp)
    61001906:	7402                	ld	s0,32(sp)
    61001908:	6145                	addi	sp,sp,48
    6100190a:	8082                	ret

000000006100190c <i2c_disable>:
    6100190c:	1101                	addi	sp,sp,-32
    6100190e:	ec22                	sd	s0,24(sp)
    61001910:	1000                	addi	s0,sp,32
    61001912:	fea43423          	sd	a0,-24(s0)
    61001916:	fe843783          	ld	a5,-24(s0)
    6100191a:	57f8                	lw	a4,108(a5)
    6100191c:	9b79                	andi	a4,a4,-2
    6100191e:	d7f8                	sw	a4,108(a5)
    61001920:	0001                	nop
    61001922:	6462                	ld	s0,24(sp)
    61001924:	6105                	addi	sp,sp,32
    61001926:	8082                	ret

0000000061001928 <i2c_enable>:
    61001928:	1101                	addi	sp,sp,-32
    6100192a:	ec22                	sd	s0,24(sp)
    6100192c:	1000                	addi	s0,sp,32
    6100192e:	fea43423          	sd	a0,-24(s0)
    61001932:	fe843783          	ld	a5,-24(s0)
    61001936:	57f8                	lw	a4,108(a5)
    61001938:	00176713          	ori	a4,a4,1
    6100193c:	d7f8                	sw	a4,108(a5)
    6100193e:	0001                	nop
    61001940:	6462                	ld	s0,24(sp)
    61001942:	6105                	addi	sp,sp,32
    61001944:	8082                	ret

0000000061001946 <i2c_setSclCount>:
    61001946:	7179                	addi	sp,sp,-48
    61001948:	f422                	sd	s0,40(sp)
    6100194a:	1800                	addi	s0,sp,48
    6100194c:	fea43423          	sd	a0,-24(s0)
    61001950:	87ae                	mv	a5,a1
    61001952:	8736                	mv	a4,a3
    61001954:	fef42223          	sw	a5,-28(s0)
    61001958:	87b2                	mv	a5,a2
    6100195a:	fef42023          	sw	a5,-32(s0)
    6100195e:	87ba                	mv	a5,a4
    61001960:	fcf41f23          	sh	a5,-34(s0)
    61001964:	fe442783          	lw	a5,-28(s0)
    61001968:	0007871b          	sext.w	a4,a5
    6100196c:	478d                	li	a5,3
    6100196e:	02f71663          	bne	a4,a5,6100199a <i2c_setSclCount+0x54>
    61001972:	fe042783          	lw	a5,-32(s0)
    61001976:	2781                	sext.w	a5,a5
    61001978:	eb89                	bnez	a5,6100198a <i2c_setSclCount+0x44>
    6100197a:	fde45783          	lhu	a5,-34(s0)
    6100197e:	0007871b          	sext.w	a4,a5
    61001982:	fe843783          	ld	a5,-24(s0)
    61001986:	d798                	sw	a4,40(a5)
    61001988:	a8b5                	j	61001a04 <i2c_setSclCount+0xbe>
    6100198a:	fde45783          	lhu	a5,-34(s0)
    6100198e:	0007871b          	sext.w	a4,a5
    61001992:	fe843783          	ld	a5,-24(s0)
    61001996:	d3d8                	sw	a4,36(a5)
    61001998:	a0b5                	j	61001a04 <i2c_setSclCount+0xbe>
    6100199a:	fe442783          	lw	a5,-28(s0)
    6100199e:	0007871b          	sext.w	a4,a5
    610019a2:	4789                	li	a5,2
    610019a4:	02f71663          	bne	a4,a5,610019d0 <i2c_setSclCount+0x8a>
    610019a8:	fe042783          	lw	a5,-32(s0)
    610019ac:	2781                	sext.w	a5,a5
    610019ae:	eb89                	bnez	a5,610019c0 <i2c_setSclCount+0x7a>
    610019b0:	fde45783          	lhu	a5,-34(s0)
    610019b4:	0007871b          	sext.w	a4,a5
    610019b8:	fe843783          	ld	a5,-24(s0)
    610019bc:	d398                	sw	a4,32(a5)
    610019be:	a099                	j	61001a04 <i2c_setSclCount+0xbe>
    610019c0:	fde45783          	lhu	a5,-34(s0)
    610019c4:	0007871b          	sext.w	a4,a5
    610019c8:	fe843783          	ld	a5,-24(s0)
    610019cc:	cfd8                	sw	a4,28(a5)
    610019ce:	a81d                	j	61001a04 <i2c_setSclCount+0xbe>
    610019d0:	fe442783          	lw	a5,-28(s0)
    610019d4:	0007871b          	sext.w	a4,a5
    610019d8:	4785                	li	a5,1
    610019da:	02f71563          	bne	a4,a5,61001a04 <i2c_setSclCount+0xbe>
    610019de:	fe042783          	lw	a5,-32(s0)
    610019e2:	2781                	sext.w	a5,a5
    610019e4:	eb89                	bnez	a5,610019f6 <i2c_setSclCount+0xb0>
    610019e6:	fde45783          	lhu	a5,-34(s0)
    610019ea:	0007871b          	sext.w	a4,a5
    610019ee:	fe843783          	ld	a5,-24(s0)
    610019f2:	cf98                	sw	a4,24(a5)
    610019f4:	a801                	j	61001a04 <i2c_setSclCount+0xbe>
    610019f6:	fde45783          	lhu	a5,-34(s0)
    610019fa:	0007871b          	sext.w	a4,a5
    610019fe:	fe843783          	ld	a5,-24(s0)
    61001a02:	cbd8                	sw	a4,20(a5)
    61001a04:	0001                	nop
    61001a06:	7422                	ld	s0,40(sp)
    61001a08:	6145                	addi	sp,sp,48
    61001a0a:	8082                	ret

0000000061001a0c <i2c_setSpeedMode>:
    61001a0c:	1101                	addi	sp,sp,-32
    61001a0e:	ec22                	sd	s0,24(sp)
    61001a10:	1000                	addi	s0,sp,32
    61001a12:	fea43423          	sd	a0,-24(s0)
    61001a16:	87ae                	mv	a5,a1
    61001a18:	fef42223          	sw	a5,-28(s0)
    61001a1c:	fe442783          	lw	a5,-28(s0)
    61001a20:	8b8d                	andi	a5,a5,3
    61001a22:	0ff7f713          	zext.b	a4,a5
    61001a26:	fe843783          	ld	a5,-24(s0)
    61001a2a:	8b0d                	andi	a4,a4,3
    61001a2c:	0017171b          	slliw	a4,a4,0x1
    61001a30:	4394                	lw	a3,0(a5)
    61001a32:	9ae5                	andi	a3,a3,-7
    61001a34:	8f55                	or	a4,a4,a3
    61001a36:	c398                	sw	a4,0(a5)
    61001a38:	0001                	nop
    61001a3a:	6462                	ld	s0,24(sp)
    61001a3c:	6105                	addi	sp,sp,32
    61001a3e:	8082                	ret

0000000061001a40 <i2c_setMasterAddressMode>:
    61001a40:	1101                	addi	sp,sp,-32
    61001a42:	ec22                	sd	s0,24(sp)
    61001a44:	1000                	addi	s0,sp,32
    61001a46:	fea43423          	sd	a0,-24(s0)
    61001a4a:	87ae                	mv	a5,a1
    61001a4c:	fef42223          	sw	a5,-28(s0)
    61001a50:	fe442783          	lw	a5,-28(s0)
    61001a54:	8b85                	andi	a5,a5,1
    61001a56:	0ff7f713          	zext.b	a4,a5
    61001a5a:	fe843783          	ld	a5,-24(s0)
    61001a5e:	8b05                	andi	a4,a4,1
    61001a60:	0047171b          	slliw	a4,a4,0x4
    61001a64:	4394                	lw	a3,0(a5)
    61001a66:	9abd                	andi	a3,a3,-17
    61001a68:	8f55                	or	a4,a4,a3
    61001a6a:	c398                	sw	a4,0(a5)
    61001a6c:	0001                	nop
    61001a6e:	6462                	ld	s0,24(sp)
    61001a70:	6105                	addi	sp,sp,32
    61001a72:	8082                	ret

0000000061001a74 <i2c_enableMaster>:
    61001a74:	1101                	addi	sp,sp,-32
    61001a76:	ec22                	sd	s0,24(sp)
    61001a78:	1000                	addi	s0,sp,32
    61001a7a:	fea43423          	sd	a0,-24(s0)
    61001a7e:	fe843783          	ld	a5,-24(s0)
    61001a82:	4398                	lw	a4,0(a5)
    61001a84:	00176713          	ori	a4,a4,1
    61001a88:	c398                	sw	a4,0(a5)
    61001a8a:	0001                	nop
    61001a8c:	6462                	ld	s0,24(sp)
    61001a8e:	6105                	addi	sp,sp,32
    61001a90:	8082                	ret

0000000061001a92 <i2c_setTargetAddress>:
    61001a92:	1101                	addi	sp,sp,-32
    61001a94:	ec22                	sd	s0,24(sp)
    61001a96:	1000                	addi	s0,sp,32
    61001a98:	fea43423          	sd	a0,-24(s0)
    61001a9c:	87ae                	mv	a5,a1
    61001a9e:	fef41323          	sh	a5,-26(s0)
    61001aa2:	fe645783          	lhu	a5,-26(s0)
    61001aa6:	3ff7f793          	andi	a5,a5,1023
    61001aaa:	03079713          	slli	a4,a5,0x30
    61001aae:	9341                	srli	a4,a4,0x30
    61001ab0:	fe843783          	ld	a5,-24(s0)
    61001ab4:	3ff77613          	andi	a2,a4,1023
    61001ab8:	43d8                	lw	a4,4(a5)
    61001aba:	c0077713          	andi	a4,a4,-1024
    61001abe:	86ba                	mv	a3,a4
    61001ac0:	8732                	mv	a4,a2
    61001ac2:	8f55                	or	a4,a4,a3
    61001ac4:	c3d8                	sw	a4,4(a5)
    61001ac6:	0001                	nop
    61001ac8:	6462                	ld	s0,24(sp)
    61001aca:	6105                	addi	sp,sp,32
    61001acc:	8082                	ret

0000000061001ace <i2c_write>:
    61001ace:	1101                	addi	sp,sp,-32
    61001ad0:	ec22                	sd	s0,24(sp)
    61001ad2:	1000                	addi	s0,sp,32
    61001ad4:	fea43423          	sd	a0,-24(s0)
    61001ad8:	87ae                	mv	a5,a1
    61001ada:	8732                	mv	a4,a2
    61001adc:	fef42223          	sw	a5,-28(s0)
    61001ae0:	87ba                	mv	a5,a4
    61001ae2:	fef401a3          	sb	a5,-29(s0)
    61001ae6:	fe442783          	lw	a5,-28(s0)
    61001aea:	2781                	sext.w	a5,a5
    61001aec:	eb89                	bnez	a5,61001afe <i2c_write+0x30>
    61001aee:	fe344783          	lbu	a5,-29(s0)
    61001af2:	0007871b          	sext.w	a4,a5
    61001af6:	fe843783          	ld	a5,-24(s0)
    61001afa:	cb98                	sw	a4,16(a5)
    61001afc:	a88d                	j	61001b6e <i2c_write+0xa0>
    61001afe:	fe442783          	lw	a5,-28(s0)
    61001b02:	0007871b          	sext.w	a4,a5
    61001b06:	4785                	li	a5,1
    61001b08:	00f71e63          	bne	a4,a5,61001b24 <i2c_write+0x56>
    61001b0c:	fe344783          	lbu	a5,-29(s0)
    61001b10:	2781                	sext.w	a5,a5
    61001b12:	2007e793          	ori	a5,a5,512
    61001b16:	2781                	sext.w	a5,a5
    61001b18:	0007871b          	sext.w	a4,a5
    61001b1c:	fe843783          	ld	a5,-24(s0)
    61001b20:	cb98                	sw	a4,16(a5)
    61001b22:	a0b1                	j	61001b6e <i2c_write+0xa0>
    61001b24:	fe442783          	lw	a5,-28(s0)
    61001b28:	0007871b          	sext.w	a4,a5
    61001b2c:	4789                	li	a5,2
    61001b2e:	00f71e63          	bne	a4,a5,61001b4a <i2c_write+0x7c>
    61001b32:	fe344783          	lbu	a5,-29(s0)
    61001b36:	2781                	sext.w	a5,a5
    61001b38:	4007e793          	ori	a5,a5,1024
    61001b3c:	2781                	sext.w	a5,a5
    61001b3e:	0007871b          	sext.w	a4,a5
    61001b42:	fe843783          	ld	a5,-24(s0)
    61001b46:	cb98                	sw	a4,16(a5)
    61001b48:	a01d                	j	61001b6e <i2c_write+0xa0>
    61001b4a:	fe442783          	lw	a5,-28(s0)
    61001b4e:	0007871b          	sext.w	a4,a5
    61001b52:	478d                	li	a5,3
    61001b54:	00f71d63          	bne	a4,a5,61001b6e <i2c_write+0xa0>
    61001b58:	fe344783          	lbu	a5,-29(s0)
    61001b5c:	2781                	sext.w	a5,a5
    61001b5e:	6007e793          	ori	a5,a5,1536
    61001b62:	2781                	sext.w	a5,a5
    61001b64:	0007871b          	sext.w	a4,a5
    61001b68:	fe843783          	ld	a5,-24(s0)
    61001b6c:	cb98                	sw	a4,16(a5)
    61001b6e:	0001                	nop
    61001b70:	6462                	ld	s0,24(sp)
    61001b72:	6105                	addi	sp,sp,32
    61001b74:	8082                	ret

0000000061001b76 <i2c_issueRead>:
    61001b76:	1101                	addi	sp,sp,-32
    61001b78:	ec22                	sd	s0,24(sp)
    61001b7a:	1000                	addi	s0,sp,32
    61001b7c:	fea43423          	sd	a0,-24(s0)
    61001b80:	87ae                	mv	a5,a1
    61001b82:	fef42223          	sw	a5,-28(s0)
    61001b86:	fe442783          	lw	a5,-28(s0)
    61001b8a:	2781                	sext.w	a5,a5
    61001b8c:	e799                	bnez	a5,61001b9a <i2c_issueRead+0x24>
    61001b8e:	fe843783          	ld	a5,-24(s0)
    61001b92:	10000713          	li	a4,256
    61001b96:	cb98                	sw	a4,16(a5)
    61001b98:	a0b9                	j	61001be6 <i2c_issueRead+0x70>
    61001b9a:	fe442783          	lw	a5,-28(s0)
    61001b9e:	0007871b          	sext.w	a4,a5
    61001ba2:	4785                	li	a5,1
    61001ba4:	00f71863          	bne	a4,a5,61001bb4 <i2c_issueRead+0x3e>
    61001ba8:	fe843783          	ld	a5,-24(s0)
    61001bac:	30000713          	li	a4,768
    61001bb0:	cb98                	sw	a4,16(a5)
    61001bb2:	a815                	j	61001be6 <i2c_issueRead+0x70>
    61001bb4:	fe442783          	lw	a5,-28(s0)
    61001bb8:	0007871b          	sext.w	a4,a5
    61001bbc:	4789                	li	a5,2
    61001bbe:	00f71863          	bne	a4,a5,61001bce <i2c_issueRead+0x58>
    61001bc2:	fe843783          	ld	a5,-24(s0)
    61001bc6:	50000713          	li	a4,1280
    61001bca:	cb98                	sw	a4,16(a5)
    61001bcc:	a829                	j	61001be6 <i2c_issueRead+0x70>
    61001bce:	fe442783          	lw	a5,-28(s0)
    61001bd2:	0007871b          	sext.w	a4,a5
    61001bd6:	478d                	li	a5,3
    61001bd8:	00f71763          	bne	a4,a5,61001be6 <i2c_issueRead+0x70>
    61001bdc:	fe843783          	ld	a5,-24(s0)
    61001be0:	70000713          	li	a4,1792
    61001be4:	cb98                	sw	a4,16(a5)
    61001be6:	0001                	nop
    61001be8:	6462                	ld	s0,24(sp)
    61001bea:	6105                	addi	sp,sp,32
    61001bec:	8082                	ret

0000000061001bee <i2c_irq_mask>:
    61001bee:	1101                	addi	sp,sp,-32
    61001bf0:	ec22                	sd	s0,24(sp)
    61001bf2:	1000                	addi	s0,sp,32
    61001bf4:	fea43423          	sd	a0,-24(s0)
    61001bf8:	87ae                	mv	a5,a1
    61001bfa:	fef42223          	sw	a5,-28(s0)
    61001bfe:	fe843783          	ld	a5,-24(s0)
    61001c02:	fe442703          	lw	a4,-28(s0)
    61001c06:	db98                	sw	a4,48(a5)
    61001c08:	0001                	nop
    61001c0a:	6462                	ld	s0,24(sp)
    61001c0c:	6105                	addi	sp,sp,32
    61001c0e:	8082                	ret

0000000061001c10 <i2c_txThr>:
    61001c10:	1101                	addi	sp,sp,-32
    61001c12:	ec22                	sd	s0,24(sp)
    61001c14:	1000                	addi	s0,sp,32
    61001c16:	fea43423          	sd	a0,-24(s0)
    61001c1a:	87ae                	mv	a5,a1
    61001c1c:	fef403a3          	sb	a5,-25(s0)
    61001c20:	fe744783          	lbu	a5,-25(s0)
    61001c24:	0007871b          	sext.w	a4,a5
    61001c28:	fe843783          	ld	a5,-24(s0)
    61001c2c:	dfd8                	sw	a4,60(a5)
    61001c2e:	0001                	nop
    61001c30:	6462                	ld	s0,24(sp)
    61001c32:	6105                	addi	sp,sp,32
    61001c34:	8082                	ret

0000000061001c36 <i2c_rxThr>:
    61001c36:	1101                	addi	sp,sp,-32
    61001c38:	ec22                	sd	s0,24(sp)
    61001c3a:	1000                	addi	s0,sp,32
    61001c3c:	fea43423          	sd	a0,-24(s0)
    61001c40:	87ae                	mv	a5,a1
    61001c42:	fef403a3          	sb	a5,-25(s0)
    61001c46:	fe744783          	lbu	a5,-25(s0)
    61001c4a:	0007871b          	sext.w	a4,a5
    61001c4e:	fe843783          	ld	a5,-24(s0)
    61001c52:	df98                	sw	a4,56(a5)
    61001c54:	0001                	nop
    61001c56:	6462                	ld	s0,24(sp)
    61001c58:	6105                	addi	sp,sp,32
    61001c5a:	8082                	ret

0000000061001c5c <i2c_sdaHold_tx>:
    61001c5c:	1101                	addi	sp,sp,-32
    61001c5e:	ec22                	sd	s0,24(sp)
    61001c60:	1000                	addi	s0,sp,32
    61001c62:	fea43423          	sd	a0,-24(s0)
    61001c66:	87ae                	mv	a5,a1
    61001c68:	fef41323          	sh	a5,-26(s0)
    61001c6c:	fe843783          	ld	a5,-24(s0)
    61001c70:	fe645703          	lhu	a4,-26(s0)
    61001c74:	06e79e23          	sh	a4,124(a5)
    61001c78:	0001                	nop
    61001c7a:	6462                	ld	s0,24(sp)
    61001c7c:	6105                	addi	sp,sp,32
    61001c7e:	8082                	ret

0000000061001c80 <i2c_spklen>:
    61001c80:	1101                	addi	sp,sp,-32
    61001c82:	ec22                	sd	s0,24(sp)
    61001c84:	1000                	addi	s0,sp,32
    61001c86:	fea43423          	sd	a0,-24(s0)
    61001c8a:	87ae                	mv	a5,a1
    61001c8c:	fef403a3          	sb	a5,-25(s0)
    61001c90:	fe744783          	lbu	a5,-25(s0)
    61001c94:	0007871b          	sext.w	a4,a5
    61001c98:	fe843783          	ld	a5,-24(s0)
    61001c9c:	0ae7a023          	sw	a4,160(a5)
    61001ca0:	0001                	nop
    61001ca2:	6462                	ld	s0,24(sp)
    61001ca4:	6105                	addi	sp,sp,32
    61001ca6:	8082                	ret

0000000061001ca8 <i2c_irq_clrAll>:
    61001ca8:	7179                	addi	sp,sp,-48
    61001caa:	f422                	sd	s0,40(sp)
    61001cac:	1800                	addi	s0,sp,48
    61001cae:	fca43c23          	sd	a0,-40(s0)
    61001cb2:	fd843783          	ld	a5,-40(s0)
    61001cb6:	43bc                	lw	a5,64(a5)
    61001cb8:	8b85                	andi	a5,a5,1
    61001cba:	0ff7f793          	zext.b	a5,a5
    61001cbe:	fef407a3          	sb	a5,-17(s0)
    61001cc2:	0001                	nop
    61001cc4:	7422                	ld	s0,40(sp)
    61001cc6:	6145                	addi	sp,sp,48
    61001cc8:	8082                	ret

0000000061001cca <i2c_irq_stat>:
    61001cca:	1101                	addi	sp,sp,-32
    61001ccc:	ec22                	sd	s0,24(sp)
    61001cce:	1000                	addi	s0,sp,32
    61001cd0:	fea43423          	sd	a0,-24(s0)
    61001cd4:	fe843783          	ld	a5,-24(s0)
    61001cd8:	57dc                	lw	a5,44(a5)
    61001cda:	2781                	sext.w	a5,a5
    61001cdc:	853e                	mv	a0,a5
    61001cde:	6462                	ld	s0,24(sp)
    61001ce0:	6105                	addi	sp,sp,32
    61001ce2:	8082                	ret

0000000061001ce4 <i2c_status>:
    61001ce4:	1101                	addi	sp,sp,-32
    61001ce6:	ec22                	sd	s0,24(sp)
    61001ce8:	1000                	addi	s0,sp,32
    61001cea:	fea43423          	sd	a0,-24(s0)
    61001cee:	fe843783          	ld	a5,-24(s0)
    61001cf2:	5bbc                	lw	a5,112(a5)
    61001cf4:	2781                	sext.w	a5,a5
    61001cf6:	853e                	mv	a0,a5
    61001cf8:	6462                	ld	s0,24(sp)
    61001cfa:	6105                	addi	sp,sp,32
    61001cfc:	8082                	ret

0000000061001cfe <i2c_clock_setup>:
    61001cfe:	7179                	addi	sp,sp,-48
    61001d00:	f406                	sd	ra,40(sp)
    61001d02:	f022                	sd	s0,32(sp)
    61001d04:	1800                	addi	s0,sp,48
    61001d06:	fca43c23          	sd	a0,-40(s0)
    61001d0a:	87ae                	mv	a5,a1
    61001d0c:	fcf42a23          	sw	a5,-44(s0)
    61001d10:	fd442703          	lw	a4,-44(s0)
    61001d14:	6785                	lui	a5,0x1
    61001d16:	fa07879b          	addiw	a5,a5,-96
    61001d1a:	02f707bb          	mulw	a5,a4,a5
    61001d1e:	2781                	sext.w	a5,a5
    61001d20:	873e                	mv	a4,a5
    61001d22:	3e800793          	li	a5,1000
    61001d26:	02f757bb          	divuw	a5,a4,a5
    61001d2a:	2781                	sext.w	a5,a5
    61001d2c:	17c2                	slli	a5,a5,0x30
    61001d2e:	93c1                	srli	a5,a5,0x30
    61001d30:	27c9                	addiw	a5,a5,18
    61001d32:	fef41723          	sh	a5,-18(s0)
    61001d36:	fd442703          	lw	a4,-44(s0)
    61001d3a:	6785                	lui	a5,0x1
    61001d3c:	25c7879b          	addiw	a5,a5,604
    61001d40:	02f707bb          	mulw	a5,a4,a5
    61001d44:	2781                	sext.w	a5,a5
    61001d46:	873e                	mv	a4,a5
    61001d48:	3e800793          	li	a5,1000
    61001d4c:	02f757bb          	divuw	a5,a4,a5
    61001d50:	2781                	sext.w	a5,a5
    61001d52:	17c2                	slli	a5,a5,0x30
    61001d54:	93c1                	srli	a5,a5,0x30
    61001d56:	27e5                	addiw	a5,a5,25
    61001d58:	fef41623          	sh	a5,-20(s0)
    61001d5c:	fd442703          	lw	a4,-44(s0)
    61001d60:	25800793          	li	a5,600
    61001d64:	02f707bb          	mulw	a5,a4,a5
    61001d68:	2781                	sext.w	a5,a5
    61001d6a:	873e                	mv	a4,a5
    61001d6c:	3e800793          	li	a5,1000
    61001d70:	02f757bb          	divuw	a5,a4,a5
    61001d74:	2781                	sext.w	a5,a5
    61001d76:	17c2                	slli	a5,a5,0x30
    61001d78:	93c1                	srli	a5,a5,0x30
    61001d7a:	27c9                	addiw	a5,a5,18
    61001d7c:	fef41523          	sh	a5,-22(s0)
    61001d80:	fd442703          	lw	a4,-44(s0)
    61001d84:	51400793          	li	a5,1300
    61001d88:	02f707bb          	mulw	a5,a4,a5
    61001d8c:	2781                	sext.w	a5,a5
    61001d8e:	873e                	mv	a4,a5
    61001d90:	3e800793          	li	a5,1000
    61001d94:	02f757bb          	divuw	a5,a4,a5
    61001d98:	2781                	sext.w	a5,a5
    61001d9a:	17c2                	slli	a5,a5,0x30
    61001d9c:	93c1                	srli	a5,a5,0x30
    61001d9e:	27e5                	addiw	a5,a5,25
    61001da0:	fef41423          	sh	a5,-24(s0)
    61001da4:	fd442703          	lw	a4,-44(s0)
    61001da8:	87ba                	mv	a5,a4
    61001daa:	0047979b          	slliw	a5,a5,0x4
    61001dae:	9f99                	subw	a5,a5,a4
    61001db0:	0027979b          	slliw	a5,a5,0x2
    61001db4:	2781                	sext.w	a5,a5
    61001db6:	873e                	mv	a4,a5
    61001db8:	3e800793          	li	a5,1000
    61001dbc:	02f757bb          	divuw	a5,a4,a5
    61001dc0:	2781                	sext.w	a5,a5
    61001dc2:	17c2                	slli	a5,a5,0x30
    61001dc4:	93c1                	srli	a5,a5,0x30
    61001dc6:	27c9                	addiw	a5,a5,18
    61001dc8:	fef41323          	sh	a5,-26(s0)
    61001dcc:	fd442703          	lw	a4,-44(s0)
    61001dd0:	87ba                	mv	a5,a4
    61001dd2:	0047979b          	slliw	a5,a5,0x4
    61001dd6:	9f99                	subw	a5,a5,a4
    61001dd8:	0037979b          	slliw	a5,a5,0x3
    61001ddc:	2781                	sext.w	a5,a5
    61001dde:	873e                	mv	a4,a5
    61001de0:	3e800793          	li	a5,1000
    61001de4:	02f757bb          	divuw	a5,a4,a5
    61001de8:	2781                	sext.w	a5,a5
    61001dea:	17c2                	slli	a5,a5,0x30
    61001dec:	93c1                	srli	a5,a5,0x30
    61001dee:	27e5                	addiw	a5,a5,25
    61001df0:	fef41223          	sh	a5,-28(s0)
    61001df4:	fee45783          	lhu	a5,-18(s0)
    61001df8:	86be                	mv	a3,a5
    61001dfa:	4605                	li	a2,1
    61001dfc:	4585                	li	a1,1
    61001dfe:	fd843503          	ld	a0,-40(s0)
    61001e02:	b45ff0ef          	jal	ra,61001946 <i2c_setSclCount>
    61001e06:	fec45783          	lhu	a5,-20(s0)
    61001e0a:	86be                	mv	a3,a5
    61001e0c:	4601                	li	a2,0
    61001e0e:	4585                	li	a1,1
    61001e10:	fd843503          	ld	a0,-40(s0)
    61001e14:	b33ff0ef          	jal	ra,61001946 <i2c_setSclCount>
    61001e18:	fea45783          	lhu	a5,-22(s0)
    61001e1c:	86be                	mv	a3,a5
    61001e1e:	4605                	li	a2,1
    61001e20:	4589                	li	a1,2
    61001e22:	fd843503          	ld	a0,-40(s0)
    61001e26:	b21ff0ef          	jal	ra,61001946 <i2c_setSclCount>
    61001e2a:	fe845783          	lhu	a5,-24(s0)
    61001e2e:	86be                	mv	a3,a5
    61001e30:	4601                	li	a2,0
    61001e32:	4589                	li	a1,2
    61001e34:	fd843503          	ld	a0,-40(s0)
    61001e38:	b0fff0ef          	jal	ra,61001946 <i2c_setSclCount>
    61001e3c:	fe645783          	lhu	a5,-26(s0)
    61001e40:	86be                	mv	a3,a5
    61001e42:	4605                	li	a2,1
    61001e44:	458d                	li	a1,3
    61001e46:	fd843503          	ld	a0,-40(s0)
    61001e4a:	afdff0ef          	jal	ra,61001946 <i2c_setSclCount>
    61001e4e:	fe445783          	lhu	a5,-28(s0)
    61001e52:	86be                	mv	a3,a5
    61001e54:	4601                	li	a2,0
    61001e56:	458d                	li	a1,3
    61001e58:	fd843503          	ld	a0,-40(s0)
    61001e5c:	aebff0ef          	jal	ra,61001946 <i2c_setSclCount>
    61001e60:	0001                	nop
    61001e62:	70a2                	ld	ra,40(sp)
    61001e64:	7402                	ld	s0,32(sp)
    61001e66:	6145                	addi	sp,sp,48
    61001e68:	8082                	ret

0000000061001e6a <AL9000_uart_init>:
    61001e6a:	7179                	addi	sp,sp,-48
    61001e6c:	f406                	sd	ra,40(sp)
    61001e6e:	f022                	sd	s0,32(sp)
    61001e70:	1800                	addi	s0,sp,48
    61001e72:	fea43423          	sd	a0,-24(s0)
    61001e76:	87ae                	mv	a5,a1
    61001e78:	8736                	mv	a4,a3
    61001e7a:	fef42223          	sw	a5,-28(s0)
    61001e7e:	87b2                	mv	a5,a2
    61001e80:	fef42023          	sw	a5,-32(s0)
    61001e84:	87ba                	mv	a5,a4
    61001e86:	fcf42e23          	sw	a5,-36(s0)
    61001e8a:	fe843783          	ld	a5,-24(s0)
    61001e8e:	0017b793          	seqz	a5,a5
    61001e92:	0ff7f793          	zext.b	a5,a5
    61001e96:	c399                	beqz	a5,61001e9c <AL9000_uart_init+0x32>
    61001e98:	57fd                	li	a5,-1
    61001e9a:	a0a9                	j	61001ee4 <AL9000_uart_init+0x7a>
    61001e9c:	81018793          	addi	a5,gp,-2032 # 610100c0 <_impure_ptr>
    61001ea0:	639c                	ld	a5,0(a5)
    61001ea2:	6b9c                	ld	a5,16(a5)
    61001ea4:	4681                	li	a3,0
    61001ea6:	4609                	li	a2,2
    61001ea8:	4581                	li	a1,0
    61001eaa:	853e                	mv	a0,a5
    61001eac:	07c010ef          	jal	ra,61002f28 <setvbuf>
    61001eb0:	fe442783          	lw	a5,-28(s0)
    61001eb4:	85be                	mv	a1,a5
    61001eb6:	fe843503          	ld	a0,-24(s0)
    61001eba:	034000ef          	jal	ra,61001eee <AL9000_uart_set_baudrate>
    61001ebe:	fe042783          	lw	a5,-32(s0)
    61001ec2:	85be                	mv	a1,a5
    61001ec4:	fe843503          	ld	a0,-24(s0)
    61001ec8:	0ec000ef          	jal	ra,61001fb4 <AL9000_uart_dataleng_config>
    61001ecc:	fdc42783          	lw	a5,-36(s0)
    61001ed0:	85be                	mv	a1,a5
    61001ed2:	fe843503          	ld	a0,-24(s0)
    61001ed6:	186000ef          	jal	ra,6100205c <AL9000_uart_config_stopbit>
    61001eda:	fe843503          	ld	a0,-24(s0)
    61001ede:	214000ef          	jal	ra,610020f2 <AL9000_uart_fifo_enable>
    61001ee2:	4781                	li	a5,0
    61001ee4:	853e                	mv	a0,a5
    61001ee6:	70a2                	ld	ra,40(sp)
    61001ee8:	7402                	ld	s0,32(sp)
    61001eea:	6145                	addi	sp,sp,48
    61001eec:	8082                	ret

0000000061001eee <AL9000_uart_set_baudrate>:
    61001eee:	1101                	addi	sp,sp,-32
    61001ef0:	ec22                	sd	s0,24(sp)
    61001ef2:	1000                	addi	s0,sp,32
    61001ef4:	fea43423          	sd	a0,-24(s0)
    61001ef8:	87ae                	mv	a5,a1
    61001efa:	fef42223          	sw	a5,-28(s0)
    61001efe:	fe843783          	ld	a5,-24(s0)
    61001f02:	47dc                	lw	a5,12(a5)
    61001f04:	2781                	sext.w	a5,a5
    61001f06:	0807e793          	ori	a5,a5,128
    61001f0a:	0007871b          	sext.w	a4,a5
    61001f0e:	fe843783          	ld	a5,-24(s0)
    61001f12:	c7d8                	sw	a4,12(a5)
    61001f14:	fe442783          	lw	a5,-28(s0)
    61001f18:	0047979b          	slliw	a5,a5,0x4
    61001f1c:	2781                	sext.w	a5,a5
    61001f1e:	02626737          	lui	a4,0x2626
    61001f22:	a007071b          	addiw	a4,a4,-1536
    61001f26:	02f757bb          	divuw	a5,a4,a5
    61001f2a:	2781                	sext.w	a5,a5
    61001f2c:	17c2                	slli	a5,a5,0x30
    61001f2e:	93c1                	srli	a5,a5,0x30
    61001f30:	0087d79b          	srliw	a5,a5,0x8
    61001f34:	17c2                	slli	a5,a5,0x30
    61001f36:	93c1                	srli	a5,a5,0x30
    61001f38:	0007871b          	sext.w	a4,a5
    61001f3c:	fe843783          	ld	a5,-24(s0)
    61001f40:	c3d8                	sw	a4,4(a5)
    61001f42:	fe442783          	lw	a5,-28(s0)
    61001f46:	0047979b          	slliw	a5,a5,0x4
    61001f4a:	2781                	sext.w	a5,a5
    61001f4c:	02626737          	lui	a4,0x2626
    61001f50:	a007071b          	addiw	a4,a4,-1536
    61001f54:	02f757bb          	divuw	a5,a4,a5
    61001f58:	2781                	sext.w	a5,a5
    61001f5a:	0ff7f793          	zext.b	a5,a5
    61001f5e:	0007871b          	sext.w	a4,a5
    61001f62:	fe843783          	ld	a5,-24(s0)
    61001f66:	c398                	sw	a4,0(a5)
    61001f68:	fe843783          	ld	a5,-24(s0)
    61001f6c:	4b9c                	lw	a5,16(a5)
    61001f6e:	2781                	sext.w	a5,a5
    61001f70:	0017e793          	ori	a5,a5,1
    61001f74:	0007871b          	sext.w	a4,a5
    61001f78:	fe843783          	ld	a5,-24(s0)
    61001f7c:	cb98                	sw	a4,16(a5)
    61001f7e:	fe843783          	ld	a5,-24(s0)
    61001f82:	4b9c                	lw	a5,16(a5)
    61001f84:	2781                	sext.w	a5,a5
    61001f86:	0027e793          	ori	a5,a5,2
    61001f8a:	0007871b          	sext.w	a4,a5
    61001f8e:	fe843783          	ld	a5,-24(s0)
    61001f92:	cb98                	sw	a4,16(a5)
    61001f94:	fe843783          	ld	a5,-24(s0)
    61001f98:	47dc                	lw	a5,12(a5)
    61001f9a:	2781                	sext.w	a5,a5
    61001f9c:	07f7f793          	andi	a5,a5,127
    61001fa0:	0007871b          	sext.w	a4,a5
    61001fa4:	fe843783          	ld	a5,-24(s0)
    61001fa8:	c7d8                	sw	a4,12(a5)
    61001faa:	4781                	li	a5,0
    61001fac:	853e                	mv	a0,a5
    61001fae:	6462                	ld	s0,24(sp)
    61001fb0:	6105                	addi	sp,sp,32
    61001fb2:	8082                	ret

0000000061001fb4 <AL9000_uart_dataleng_config>:
    61001fb4:	1101                	addi	sp,sp,-32
    61001fb6:	ec22                	sd	s0,24(sp)
    61001fb8:	1000                	addi	s0,sp,32
    61001fba:	fea43423          	sd	a0,-24(s0)
    61001fbe:	87ae                	mv	a5,a1
    61001fc0:	fef42223          	sw	a5,-28(s0)
    61001fc4:	fe442783          	lw	a5,-28(s0)
    61001fc8:	0007871b          	sext.w	a4,a5
    61001fcc:	4789                	li	a5,2
    61001fce:	04f70a63          	beq	a4,a5,61002022 <AL9000_uart_dataleng_config+0x6e>
    61001fd2:	fe442783          	lw	a5,-28(s0)
    61001fd6:	0007871b          	sext.w	a4,a5
    61001fda:	4789                	li	a5,2
    61001fdc:	04e7ef63          	bltu	a5,a4,6100203a <AL9000_uart_dataleng_config+0x86>
    61001fe0:	fe442783          	lw	a5,-28(s0)
    61001fe4:	2781                	sext.w	a5,a5
    61001fe6:	cb89                	beqz	a5,61001ff8 <AL9000_uart_dataleng_config+0x44>
    61001fe8:	fe442783          	lw	a5,-28(s0)
    61001fec:	0007871b          	sext.w	a4,a5
    61001ff0:	4785                	li	a5,1
    61001ff2:	00f70c63          	beq	a4,a5,6100200a <AL9000_uart_dataleng_config+0x56>
    61001ff6:	a091                	j	6100203a <AL9000_uart_dataleng_config+0x86>
    61001ff8:	fe843783          	ld	a5,-24(s0)
    61001ffc:	47dc                	lw	a5,12(a5)
    61001ffe:	0007871b          	sext.w	a4,a5
    61002002:	fe843783          	ld	a5,-24(s0)
    61002006:	c7d8                	sw	a4,12(a5)
    61002008:	a0a9                	j	61002052 <AL9000_uart_dataleng_config+0x9e>
    6100200a:	fe843783          	ld	a5,-24(s0)
    6100200e:	47dc                	lw	a5,12(a5)
    61002010:	2781                	sext.w	a5,a5
    61002012:	0017e793          	ori	a5,a5,1
    61002016:	0007871b          	sext.w	a4,a5
    6100201a:	fe843783          	ld	a5,-24(s0)
    6100201e:	c7d8                	sw	a4,12(a5)
    61002020:	a80d                	j	61002052 <AL9000_uart_dataleng_config+0x9e>
    61002022:	fe843783          	ld	a5,-24(s0)
    61002026:	47dc                	lw	a5,12(a5)
    61002028:	2781                	sext.w	a5,a5
    6100202a:	0027e793          	ori	a5,a5,2
    6100202e:	0007871b          	sext.w	a4,a5
    61002032:	fe843783          	ld	a5,-24(s0)
    61002036:	c7d8                	sw	a4,12(a5)
    61002038:	a829                	j	61002052 <AL9000_uart_dataleng_config+0x9e>
    6100203a:	fe843783          	ld	a5,-24(s0)
    6100203e:	47dc                	lw	a5,12(a5)
    61002040:	2781                	sext.w	a5,a5
    61002042:	0037e793          	ori	a5,a5,3
    61002046:	0007871b          	sext.w	a4,a5
    6100204a:	fe843783          	ld	a5,-24(s0)
    6100204e:	c7d8                	sw	a4,12(a5)
    61002050:	0001                	nop
    61002052:	4781                	li	a5,0
    61002054:	853e                	mv	a0,a5
    61002056:	6462                	ld	s0,24(sp)
    61002058:	6105                	addi	sp,sp,32
    6100205a:	8082                	ret

000000006100205c <AL9000_uart_config_stopbit>:
    6100205c:	1101                	addi	sp,sp,-32
    6100205e:	ec22                	sd	s0,24(sp)
    61002060:	1000                	addi	s0,sp,32
    61002062:	fea43423          	sd	a0,-24(s0)
    61002066:	87ae                	mv	a5,a1
    61002068:	fef42223          	sw	a5,-28(s0)
    6100206c:	fe843783          	ld	a5,-24(s0)
    61002070:	0017b793          	seqz	a5,a5
    61002074:	0ff7f793          	zext.b	a5,a5
    61002078:	c399                	beqz	a5,6100207e <AL9000_uart_config_stopbit+0x22>
    6100207a:	57fd                	li	a5,-1
    6100207c:	a0bd                	j	610020ea <AL9000_uart_config_stopbit+0x8e>
    6100207e:	fe442783          	lw	a5,-28(s0)
    61002082:	2781                	sext.w	a5,a5
    61002084:	cb89                	beqz	a5,61002096 <AL9000_uart_config_stopbit+0x3a>
    61002086:	fe442783          	lw	a5,-28(s0)
    6100208a:	0007871b          	sext.w	a4,a5
    6100208e:	4785                	li	a5,1
    61002090:	00f70c63          	beq	a4,a5,610020a8 <AL9000_uart_config_stopbit+0x4c>
    61002094:	a835                	j	610020d0 <AL9000_uart_config_stopbit+0x74>
    61002096:	fe843783          	ld	a5,-24(s0)
    6100209a:	47dc                	lw	a5,12(a5)
    6100209c:	0007871b          	sext.w	a4,a5
    610020a0:	fe843783          	ld	a5,-24(s0)
    610020a4:	c7d8                	sw	a4,12(a5)
    610020a6:	a089                	j	610020e8 <AL9000_uart_config_stopbit+0x8c>
    610020a8:	fe843783          	ld	a5,-24(s0)
    610020ac:	47dc                	lw	a5,12(a5)
    610020ae:	0007871b          	sext.w	a4,a5
    610020b2:	fe843783          	ld	a5,-24(s0)
    610020b6:	c7d8                	sw	a4,12(a5)
    610020b8:	fe843783          	ld	a5,-24(s0)
    610020bc:	47dc                	lw	a5,12(a5)
    610020be:	2781                	sext.w	a5,a5
    610020c0:	0047e793          	ori	a5,a5,4
    610020c4:	0007871b          	sext.w	a4,a5
    610020c8:	fe843783          	ld	a5,-24(s0)
    610020cc:	c7d8                	sw	a4,12(a5)
    610020ce:	a829                	j	610020e8 <AL9000_uart_config_stopbit+0x8c>
    610020d0:	fe843783          	ld	a5,-24(s0)
    610020d4:	47dc                	lw	a5,12(a5)
    610020d6:	2781                	sext.w	a5,a5
    610020d8:	0047e793          	ori	a5,a5,4
    610020dc:	0007871b          	sext.w	a4,a5
    610020e0:	fe843783          	ld	a5,-24(s0)
    610020e4:	c7d8                	sw	a4,12(a5)
    610020e6:	0001                	nop
    610020e8:	4781                	li	a5,0
    610020ea:	853e                	mv	a0,a5
    610020ec:	6462                	ld	s0,24(sp)
    610020ee:	6105                	addi	sp,sp,32
    610020f0:	8082                	ret

00000000610020f2 <AL9000_uart_fifo_enable>:
    610020f2:	1101                	addi	sp,sp,-32
    610020f4:	ec22                	sd	s0,24(sp)
    610020f6:	1000                	addi	s0,sp,32
    610020f8:	fea43423          	sd	a0,-24(s0)
    610020fc:	fe843783          	ld	a5,-24(s0)
    61002100:	0017b793          	seqz	a5,a5
    61002104:	0ff7f793          	zext.b	a5,a5
    61002108:	c781                	beqz	a5,61002110 <AL9000_uart_fifo_enable+0x1e>
    6100210a:	0ff00793          	li	a5,255
    6100210e:	a031                	j	6100211a <AL9000_uart_fifo_enable+0x28>
    61002110:	fe843783          	ld	a5,-24(s0)
    61002114:	4705                	li	a4,1
    61002116:	c798                	sw	a4,8(a5)
    61002118:	4781                	li	a5,0
    6100211a:	853e                	mv	a0,a5
    6100211c:	6462                	ld	s0,24(sp)
    6100211e:	6105                	addi	sp,sp,32
    61002120:	8082                	ret

0000000061002122 <uart_write>:
    61002122:	1101                	addi	sp,sp,-32
    61002124:	ec22                	sd	s0,24(sp)
    61002126:	1000                	addi	s0,sp,32
    61002128:	fea43423          	sd	a0,-24(s0)
    6100212c:	87ae                	mv	a5,a1
    6100212e:	fef403a3          	sb	a5,-25(s0)
    61002132:	fe843783          	ld	a5,-24(s0)
    61002136:	0017b793          	seqz	a5,a5
    6100213a:	0ff7f793          	zext.b	a5,a5
    6100213e:	c399                	beqz	a5,61002144 <uart_write+0x22>
    61002140:	57fd                	li	a5,-1
    61002142:	a025                	j	6100216a <uart_write+0x48>
    61002144:	0001                	nop
    61002146:	fe843783          	ld	a5,-24(s0)
    6100214a:	4bdc                	lw	a5,20(a5)
    6100214c:	2781                	sext.w	a5,a5
    6100214e:	0207f793          	andi	a5,a5,32
    61002152:	2781                	sext.w	a5,a5
    61002154:	dbed                	beqz	a5,61002146 <uart_write+0x24>
    61002156:	fe744783          	lbu	a5,-25(s0)
    6100215a:	0ff7f793          	zext.b	a5,a5
    6100215e:	0007871b          	sext.w	a4,a5
    61002162:	fe843783          	ld	a5,-24(s0)
    61002166:	c398                	sw	a4,0(a5)
    61002168:	4781                	li	a5,0
    6100216a:	853e                	mv	a0,a5
    6100216c:	6462                	ld	s0,24(sp)
    6100216e:	6105                	addi	sp,sp,32
    61002170:	8082                	ret

0000000061002172 <uart_read>:
    61002172:	7179                	addi	sp,sp,-48
    61002174:	f422                	sd	s0,40(sp)
    61002176:	1800                	addi	s0,sp,48
    61002178:	fca43c23          	sd	a0,-40(s0)
    6100217c:	fd843783          	ld	a5,-40(s0)
    61002180:	0017b793          	seqz	a5,a5
    61002184:	0ff7f793          	zext.b	a5,a5
    61002188:	c781                	beqz	a5,61002190 <uart_read+0x1e>
    6100218a:	0ff00793          	li	a5,255
    6100218e:	a015                	j	610021b2 <uart_read+0x40>
    61002190:	0001                	nop
    61002192:	fd843783          	ld	a5,-40(s0)
    61002196:	4bdc                	lw	a5,20(a5)
    61002198:	2781                	sext.w	a5,a5
    6100219a:	8b85                	andi	a5,a5,1
    6100219c:	2781                	sext.w	a5,a5
    6100219e:	dbf5                	beqz	a5,61002192 <uart_read+0x20>
    610021a0:	fd843783          	ld	a5,-40(s0)
    610021a4:	439c                	lw	a5,0(a5)
    610021a6:	fef42623          	sw	a5,-20(s0)
    610021aa:	fec42783          	lw	a5,-20(s0)
    610021ae:	0ff7f793          	zext.b	a5,a5
    610021b2:	853e                	mv	a0,a5
    610021b4:	7422                	ld	s0,40(sp)
    610021b6:	6145                	addi	sp,sp,48
    610021b8:	8082                	ret

00000000610021ba <_close>:
    610021ba:	1101                	addi	sp,sp,-32
    610021bc:	ec22                	sd	s0,24(sp)
    610021be:	1000                	addi	s0,sp,32
    610021c0:	87aa                	mv	a5,a0
    610021c2:	fef42623          	sw	a5,-20(s0)
    610021c6:	0000e797          	auipc	a5,0xe
    610021ca:	f1278793          	addi	a5,a5,-238 # 610100d8 <errno>
    610021ce:	4725                	li	a4,9
    610021d0:	c398                	sw	a4,0(a5)
    610021d2:	57fd                	li	a5,-1
    610021d4:	853e                	mv	a0,a5
    610021d6:	6462                	ld	s0,24(sp)
    610021d8:	6105                	addi	sp,sp,32
    610021da:	8082                	ret

00000000610021dc <_fstat>:
    610021dc:	1101                	addi	sp,sp,-32
    610021de:	ec22                	sd	s0,24(sp)
    610021e0:	1000                	addi	s0,sp,32
    610021e2:	87aa                	mv	a5,a0
    610021e4:	feb43023          	sd	a1,-32(s0)
    610021e8:	fef42623          	sw	a5,-20(s0)
    610021ec:	fec42783          	lw	a5,-20(s0)
    610021f0:	0007871b          	sext.w	a4,a5
    610021f4:	4785                	li	a5,1
    610021f6:	00f70963          	beq	a4,a5,61002208 <_fstat+0x2c>
    610021fa:	fec42783          	lw	a5,-20(s0)
    610021fe:	0007871b          	sext.w	a4,a5
    61002202:	4789                	li	a5,2
    61002204:	00f71863          	bne	a4,a5,61002214 <_fstat+0x38>
    61002208:	fe043783          	ld	a5,-32(s0)
    6100220c:	6709                	lui	a4,0x2
    6100220e:	c3d8                	sw	a4,4(a5)
    61002210:	4781                	li	a5,0
    61002212:	a801                	j	61002222 <_fstat+0x46>
    61002214:	0000e797          	auipc	a5,0xe
    61002218:	ec478793          	addi	a5,a5,-316 # 610100d8 <errno>
    6100221c:	4725                	li	a4,9
    6100221e:	c398                	sw	a4,0(a5)
    61002220:	57fd                	li	a5,-1
    61002222:	853e                	mv	a0,a5
    61002224:	6462                	ld	s0,24(sp)
    61002226:	6105                	addi	sp,sp,32
    61002228:	8082                	ret

000000006100222a <_isatty>:
    6100222a:	1101                	addi	sp,sp,-32
    6100222c:	ec22                	sd	s0,24(sp)
    6100222e:	1000                	addi	s0,sp,32
    61002230:	87aa                	mv	a5,a0
    61002232:	fef42623          	sw	a5,-20(s0)
    61002236:	4785                	li	a5,1
    61002238:	853e                	mv	a0,a5
    6100223a:	6462                	ld	s0,24(sp)
    6100223c:	6105                	addi	sp,sp,32
    6100223e:	8082                	ret

0000000061002240 <_lseek>:
    61002240:	1101                	addi	sp,sp,-32
    61002242:	ec22                	sd	s0,24(sp)
    61002244:	1000                	addi	s0,sp,32
    61002246:	87aa                	mv	a5,a0
    61002248:	86ae                	mv	a3,a1
    6100224a:	8732                	mv	a4,a2
    6100224c:	fef42623          	sw	a5,-20(s0)
    61002250:	87b6                	mv	a5,a3
    61002252:	fef42423          	sw	a5,-24(s0)
    61002256:	87ba                	mv	a5,a4
    61002258:	fef42223          	sw	a5,-28(s0)
    6100225c:	4781                	li	a5,0
    6100225e:	853e                	mv	a0,a5
    61002260:	6462                	ld	s0,24(sp)
    61002262:	6105                	addi	sp,sp,32
    61002264:	8082                	ret

0000000061002266 <_read>:
    61002266:	7139                	addi	sp,sp,-64
    61002268:	fc06                	sd	ra,56(sp)
    6100226a:	f822                	sd	s0,48(sp)
    6100226c:	0080                	addi	s0,sp,64
    6100226e:	87aa                	mv	a5,a0
    61002270:	fcb43823          	sd	a1,-48(s0)
    61002274:	fcc43423          	sd	a2,-56(s0)
    61002278:	fcf42e23          	sw	a5,-36(s0)
    6100227c:	fdc42783          	lw	a5,-36(s0)
    61002280:	2781                	sext.w	a5,a5
    61002282:	c399                	beqz	a5,61002288 <_read+0x22>
    61002284:	57fd                	li	a5,-1
    61002286:	a015                	j	610022aa <_read+0x44>
    61002288:	fd043783          	ld	a5,-48(s0)
    6100228c:	fef43423          	sd	a5,-24(s0)
    61002290:	3e100793          	li	a5,993
    61002294:	01679513          	slli	a0,a5,0x16
    61002298:	edbff0ef          	jal	ra,61002172 <uart_read>
    6100229c:	87aa                	mv	a5,a0
    6100229e:	873e                	mv	a4,a5
    610022a0:	fe843783          	ld	a5,-24(s0)
    610022a4:	00e78023          	sb	a4,0(a5)
    610022a8:	4785                	li	a5,1
    610022aa:	853e                	mv	a0,a5
    610022ac:	70e2                	ld	ra,56(sp)
    610022ae:	7442                	ld	s0,48(sp)
    610022b0:	6121                	addi	sp,sp,64
    610022b2:	8082                	ret

00000000610022b4 <_sbrk>:
    610022b4:	1101                	addi	sp,sp,-32
    610022b6:	ec22                	sd	s0,24(sp)
    610022b8:	1000                	addi	s0,sp,32
    610022ba:	fea43423          	sd	a0,-24(s0)
    610022be:	0000e797          	auipc	a5,0xe
    610022c2:	df278793          	addi	a5,a5,-526 # 610100b0 <curbrk.0>
    610022c6:	6398                	ld	a4,0(a5)
    610022c8:	fe843783          	ld	a5,-24(s0)
    610022cc:	973e                	add	a4,a4,a5
    610022ce:	a0818793          	addi	a5,gp,-1528 # 610102b8 <_end>
    610022d2:	02f76063          	bltu	a4,a5,610022f2 <_sbrk+0x3e>
    610022d6:	0000e797          	auipc	a5,0xe
    610022da:	dda78793          	addi	a5,a5,-550 # 610100b0 <curbrk.0>
    610022de:	6398                	ld	a4,0(a5)
    610022e0:	fe843783          	ld	a5,-24(s0)
    610022e4:	973e                	add	a4,a4,a5
    610022e6:	0001d797          	auipc	a5,0x1d
    610022ea:	51a78793          	addi	a5,a5,1306 # 6101f800 <_heap_end>
    610022ee:	00e7f463          	bgeu	a5,a4,610022f6 <_sbrk+0x42>
    610022f2:	57fd                	li	a5,-1
    610022f4:	a805                	j	61002324 <_sbrk+0x70>
    610022f6:	0000e797          	auipc	a5,0xe
    610022fa:	dba78793          	addi	a5,a5,-582 # 610100b0 <curbrk.0>
    610022fe:	6398                	ld	a4,0(a5)
    61002300:	fe843783          	ld	a5,-24(s0)
    61002304:	973e                	add	a4,a4,a5
    61002306:	0000e797          	auipc	a5,0xe
    6100230a:	daa78793          	addi	a5,a5,-598 # 610100b0 <curbrk.0>
    6100230e:	e398                	sd	a4,0(a5)
    61002310:	0000e797          	auipc	a5,0xe
    61002314:	da078793          	addi	a5,a5,-608 # 610100b0 <curbrk.0>
    61002318:	6398                	ld	a4,0(a5)
    6100231a:	fe843783          	ld	a5,-24(s0)
    6100231e:	40f007b3          	neg	a5,a5
    61002322:	97ba                	add	a5,a5,a4
    61002324:	853e                	mv	a0,a5
    61002326:	6462                	ld	s0,24(sp)
    61002328:	6105                	addi	sp,sp,32
    6100232a:	8082                	ret

000000006100232c <_write>:
    6100232c:	7139                	addi	sp,sp,-64
    6100232e:	fc06                	sd	ra,56(sp)
    61002330:	f822                	sd	s0,48(sp)
    61002332:	0080                	addi	s0,sp,64
    61002334:	87aa                	mv	a5,a0
    61002336:	fcb43823          	sd	a1,-48(s0)
    6100233a:	fcc43423          	sd	a2,-56(s0)
    6100233e:	fcf42e23          	sw	a5,-36(s0)
    61002342:	fdc42783          	lw	a5,-36(s0)
    61002346:	853e                	mv	a0,a5
    61002348:	571000ef          	jal	ra,610030b8 <isatty>
    6100234c:	87aa                	mv	a5,a0
    6100234e:	e399                	bnez	a5,61002354 <_write+0x28>
    61002350:	57fd                	li	a5,-1
    61002352:	a0ad                	j	610023bc <_write+0x90>
    61002354:	fd043783          	ld	a5,-48(s0)
    61002358:	fef43023          	sd	a5,-32(s0)
    6100235c:	fe043423          	sd	zero,-24(s0)
    61002360:	a0b1                	j	610023ac <_write+0x80>
    61002362:	fe043703          	ld	a4,-32(s0)
    61002366:	fe843783          	ld	a5,-24(s0)
    6100236a:	97ba                	add	a5,a5,a4
    6100236c:	0007c783          	lbu	a5,0(a5)
    61002370:	873e                	mv	a4,a5
    61002372:	47a9                	li	a5,10
    61002374:	00f71963          	bne	a4,a5,61002386 <_write+0x5a>
    61002378:	45b5                	li	a1,13
    6100237a:	3e100793          	li	a5,993
    6100237e:	01679513          	slli	a0,a5,0x16
    61002382:	da1ff0ef          	jal	ra,61002122 <uart_write>
    61002386:	fe043703          	ld	a4,-32(s0)
    6100238a:	fe843783          	ld	a5,-24(s0)
    6100238e:	97ba                	add	a5,a5,a4
    61002390:	0007c783          	lbu	a5,0(a5)
    61002394:	85be                	mv	a1,a5
    61002396:	3e100793          	li	a5,993
    6100239a:	01679513          	slli	a0,a5,0x16
    6100239e:	d85ff0ef          	jal	ra,61002122 <uart_write>
    610023a2:	fe843783          	ld	a5,-24(s0)
    610023a6:	0785                	addi	a5,a5,1
    610023a8:	fef43423          	sd	a5,-24(s0)
    610023ac:	fe843703          	ld	a4,-24(s0)
    610023b0:	fc843783          	ld	a5,-56(s0)
    610023b4:	faf767e3          	bltu	a4,a5,61002362 <_write+0x36>
    610023b8:	fc843783          	ld	a5,-56(s0)
    610023bc:	853e                	mv	a0,a5
    610023be:	70e2                	ld	ra,56(sp)
    610023c0:	7442                	ld	s0,48(sp)
    610023c2:	6121                	addi	sp,sp,64
    610023c4:	8082                	ret

00000000610023c6 <SystemInit>:
    610023c6:	1141                	addi	sp,sp,-16
    610023c8:	e422                	sd	s0,8(sp)
    610023ca:	0800                	addi	s0,sp,16
    610023cc:	0000e797          	auipc	a5,0xe
    610023d0:	cec78793          	addi	a5,a5,-788 # 610100b8 <SystemCoreClock>
    610023d4:	02faf737          	lui	a4,0x2faf
    610023d8:	08070713          	addi	a4,a4,128 # 2faf080 <__stack_size+0x2fae880>
    610023dc:	c398                	sw	a4,0(a5)
    610023de:	0001                	nop
    610023e0:	6422                	ld	s0,8(sp)
    610023e2:	0141                	addi	sp,sp,16
    610023e4:	8082                	ret

00000000610023e6 <system_default_exception_handler>:
    610023e6:	1101                	addi	sp,sp,-32
    610023e8:	ec06                	sd	ra,24(sp)
    610023ea:	e822                	sd	s0,16(sp)
    610023ec:	1000                	addi	s0,sp,32
    610023ee:	fea43423          	sd	a0,-24(s0)
    610023f2:	feb43023          	sd	a1,-32(s0)
    610023f6:	fe843583          	ld	a1,-24(s0)
    610023fa:	00002517          	auipc	a0,0x2
    610023fe:	ffe50513          	addi	a0,a0,-2 # 610043f8 <_read_r+0x106>
    61002402:	1fb000ef          	jal	ra,61002dfc <iprintf>
    61002406:	7c9027f3          	csrr	a5,mdcause
    6100240a:	80be                	mv	ra,a5
    6100240c:	8786                	mv	a5,ra
    6100240e:	85be                	mv	a1,a5
    61002410:	00002517          	auipc	a0,0x2
    61002414:	00050513          	mv	a0,a0
    61002418:	1e5000ef          	jal	ra,61002dfc <iprintf>
    6100241c:	341027f3          	csrr	a5,mepc
    61002420:	80be                	mv	ra,a5
    61002422:	8786                	mv	a5,ra
    61002424:	85be                	mv	a1,a5
    61002426:	00002517          	auipc	a0,0x2
    6100242a:	00250513          	addi	a0,a0,2 # 61004428 <_read_r+0x136>
    6100242e:	1cf000ef          	jal	ra,61002dfc <iprintf>
    61002432:	343027f3          	csrr	a5,mtval
    61002436:	80be                	mv	ra,a5
    61002438:	8786                	mv	a5,ra
    6100243a:	85be                	mv	a1,a5
    6100243c:	00002517          	auipc	a0,0x2
    61002440:	00450513          	addi	a0,a0,4 # 61004440 <_read_r+0x14e>
    61002444:	1b9000ef          	jal	ra,61002dfc <iprintf>
    61002448:	a001                	j	61002448 <system_default_exception_handler+0x62>

000000006100244a <Exception_Init>:
    6100244a:	1101                	addi	sp,sp,-32
    6100244c:	ec22                	sd	s0,24(sp)
    6100244e:	1000                	addi	s0,sp,32
    61002450:	fe042623          	sw	zero,-20(s0)
    61002454:	a01d                	j	6100247a <Exception_Init+0x30>
    61002456:	00000717          	auipc	a4,0x0
    6100245a:	f9070713          	addi	a4,a4,-112 # 610023e6 <system_default_exception_handler>
    6100245e:	0000e697          	auipc	a3,0xe
    61002462:	c9a68693          	addi	a3,a3,-870 # 610100f8 <SystemExceptionHandlers>
    61002466:	fec42783          	lw	a5,-20(s0)
    6100246a:	078e                	slli	a5,a5,0x3
    6100246c:	97b6                	add	a5,a5,a3
    6100246e:	e398                	sd	a4,0(a5)
    61002470:	fec42783          	lw	a5,-20(s0)
    61002474:	2785                	addiw	a5,a5,1
    61002476:	fef42623          	sw	a5,-20(s0)
    6100247a:	fec42783          	lw	a5,-20(s0)
    6100247e:	0007871b          	sext.w	a4,a5
    61002482:	47b1                	li	a5,12
    61002484:	fce7d9e3          	bge	a5,a4,61002456 <Exception_Init+0xc>
    61002488:	0001                	nop
    6100248a:	0001                	nop
    6100248c:	6462                	ld	s0,24(sp)
    6100248e:	6105                	addi	sp,sp,32
    61002490:	8082                	ret

0000000061002492 <core_exception_handler>:
    61002492:	7179                	addi	sp,sp,-48
    61002494:	f406                	sd	ra,40(sp)
    61002496:	f022                	sd	s0,32(sp)
    61002498:	1800                	addi	s0,sp,48
    6100249a:	fca43c23          	sd	a0,-40(s0)
    6100249e:	fcb43823          	sd	a1,-48(s0)
    610024a2:	fd843783          	ld	a5,-40(s0)
    610024a6:	2781                	sext.w	a5,a5
    610024a8:	873e                	mv	a4,a5
    610024aa:	6785                	lui	a5,0x1
    610024ac:	17fd                	addi	a5,a5,-1
    610024ae:	8ff9                	and	a5,a5,a4
    610024b0:	fef42223          	sw	a5,-28(s0)
    610024b4:	fe442783          	lw	a5,-28(s0)
    610024b8:	0007871b          	sext.w	a4,a5
    610024bc:	47ad                	li	a5,11
    610024be:	00e7ee63          	bltu	a5,a4,610024da <core_exception_handler+0x48>
    610024c2:	0000e717          	auipc	a4,0xe
    610024c6:	c3670713          	addi	a4,a4,-970 # 610100f8 <SystemExceptionHandlers>
    610024ca:	fe446783          	lwu	a5,-28(s0)
    610024ce:	078e                	slli	a5,a5,0x3
    610024d0:	97ba                	add	a5,a5,a4
    610024d2:	639c                	ld	a5,0(a5)
    610024d4:	fef43423          	sd	a5,-24(s0)
    610024d8:	a03d                	j	61002506 <core_exception_handler+0x74>
    610024da:	fe442783          	lw	a5,-28(s0)
    610024de:	0007871b          	sext.w	a4,a5
    610024e2:	6785                	lui	a5,0x1
    610024e4:	17fd                	addi	a5,a5,-1
    610024e6:	00f71a63          	bne	a4,a5,610024fa <core_exception_handler+0x68>
    610024ea:	0000e797          	auipc	a5,0xe
    610024ee:	c0e78793          	addi	a5,a5,-1010 # 610100f8 <SystemExceptionHandlers>
    610024f2:	73bc                	ld	a5,96(a5)
    610024f4:	fef43423          	sd	a5,-24(s0)
    610024f8:	a039                	j	61002506 <core_exception_handler+0x74>
    610024fa:	00000797          	auipc	a5,0x0
    610024fe:	eec78793          	addi	a5,a5,-276 # 610023e6 <system_default_exception_handler>
    61002502:	fef43423          	sd	a5,-24(s0)
    61002506:	fe843783          	ld	a5,-24(s0)
    6100250a:	cb81                	beqz	a5,6100251a <core_exception_handler+0x88>
    6100250c:	fe843783          	ld	a5,-24(s0)
    61002510:	fd043583          	ld	a1,-48(s0)
    61002514:	fd843503          	ld	a0,-40(s0)
    61002518:	9782                	jalr	a5
    6100251a:	4781                	li	a5,0
    6100251c:	853e                	mv	a0,a5
    6100251e:	70a2                	ld	ra,40(sp)
    61002520:	7402                	ld	s0,32(sp)
    61002522:	6145                	addi	sp,sp,48
    61002524:	8082                	ret

0000000061002526 <SystemBannerPrint>:
    61002526:	7179                	addi	sp,sp,-48
    61002528:	f406                	sd	ra,40(sp)
    6100252a:	f022                	sd	s0,32(sp)
    6100252c:	1800                	addi	s0,sp,48
    6100252e:	00002797          	auipc	a5,0x2
    61002532:	f9a78793          	addi	a5,a5,-102 # 610044c8 <_read_r+0x1d6>
    61002536:	6390                	ld	a2,0(a5)
    61002538:	6794                	ld	a3,8(a5)
    6100253a:	6b98                	ld	a4,16(a5)
    6100253c:	6f9c                	ld	a5,24(a5)
    6100253e:	fcc43823          	sd	a2,-48(s0)
    61002542:	fcd43c23          	sd	a3,-40(s0)
    61002546:	fee43023          	sd	a4,-32(s0)
    6100254a:	fef43423          	sd	a5,-24(s0)
    6100254e:	00002617          	auipc	a2,0x2
    61002552:	f0a60613          	addi	a2,a2,-246 # 61004458 <_read_r+0x166>
    61002556:	00002597          	auipc	a1,0x2
    6100255a:	f1258593          	addi	a1,a1,-238 # 61004468 <_read_r+0x176>
    6100255e:	00002517          	auipc	a0,0x2
    61002562:	f1a50513          	addi	a0,a0,-230 # 61004478 <_read_r+0x186>
    61002566:	097000ef          	jal	ra,61002dfc <iprintf>
    6100256a:	fe043783          	ld	a5,-32(s0)
    6100256e:	85be                	mv	a1,a5
    61002570:	00002517          	auipc	a0,0x2
    61002574:	f2850513          	addi	a0,a0,-216 # 61004498 <_read_r+0x1a6>
    61002578:	085000ef          	jal	ra,61002dfc <iprintf>
    6100257c:	0000e797          	auipc	a5,0xe
    61002580:	b3c78793          	addi	a5,a5,-1220 # 610100b8 <SystemCoreClock>
    61002584:	439c                	lw	a5,0(a5)
    61002586:	85be                	mv	a1,a5
    61002588:	00002517          	auipc	a0,0x2
    6100258c:	f2850513          	addi	a0,a0,-216 # 610044b0 <_read_r+0x1be>
    61002590:	06d000ef          	jal	ra,61002dfc <iprintf>
    61002594:	0001                	nop
    61002596:	70a2                	ld	ra,40(sp)
    61002598:	7402                	ld	s0,32(sp)
    6100259a:	6145                	addi	sp,sp,48
    6100259c:	8082                	ret

000000006100259e <ECLIC_Init>:
    6100259e:	1101                	addi	sp,sp,-32
    610025a0:	ec22                	sd	s0,24(sp)
    610025a2:	1000                	addi	s0,sp,32
    610025a4:	fe0405a3          	sb	zero,-21(s0)
    610025a8:	680007b7          	lui	a5,0x68000
    610025ac:	feb44703          	lbu	a4,-21(s0)
    610025b0:	00e785a3          	sb	a4,11(a5) # 6800000b <_sp+0x6fe000b>
    610025b4:	0001                	nop
    610025b6:	680007b7          	lui	a5,0x68000
    610025ba:	43dc                	lw	a5,4(a5)
    610025bc:	2781                	sext.w	a5,a5
    610025be:	1782                	slli	a5,a5,0x20
    610025c0:	9381                	srli	a5,a5,0x20
    610025c2:	83d5                	srli	a5,a5,0x15
    610025c4:	2781                	sext.w	a5,a5
    610025c6:	8bbd                	andi	a5,a5,15
    610025c8:	2781                	sext.w	a5,a5
    610025ca:	2781                	sext.w	a5,a5
    610025cc:	2781                	sext.w	a5,a5
    610025ce:	fef42623          	sw	a5,-20(s0)
    610025d2:	680007b7          	lui	a5,0x68000
    610025d6:	0007c783          	lbu	a5,0(a5) # 68000000 <_sp+0x6fe0000>
    610025da:	0ff7f713          	zext.b	a4,a5
    610025de:	680007b7          	lui	a5,0x68000
    610025e2:	9b05                	andi	a4,a4,-31
    610025e4:	0ff77713          	zext.b	a4,a4
    610025e8:	00e78023          	sb	a4,0(a5) # 68000000 <_sp+0x6fe0000>
    610025ec:	680007b7          	lui	a5,0x68000
    610025f0:	0007c783          	lbu	a5,0(a5) # 68000000 <_sp+0x6fe0000>
    610025f4:	0ff7f793          	zext.b	a5,a5
    610025f8:	0187971b          	slliw	a4,a5,0x18
    610025fc:	4187571b          	sraiw	a4,a4,0x18
    61002600:	fec42783          	lw	a5,-20(s0)
    61002604:	0ff7f793          	zext.b	a5,a5
    61002608:	0017979b          	slliw	a5,a5,0x1
    6100260c:	0ff7f793          	zext.b	a5,a5
    61002610:	0187979b          	slliw	a5,a5,0x18
    61002614:	4187d79b          	sraiw	a5,a5,0x18
    61002618:	8bf9                	andi	a5,a5,30
    6100261a:	0187979b          	slliw	a5,a5,0x18
    6100261e:	4187d79b          	sraiw	a5,a5,0x18
    61002622:	8fd9                	or	a5,a5,a4
    61002624:	0187971b          	slliw	a4,a5,0x18
    61002628:	4187571b          	sraiw	a4,a4,0x18
    6100262c:	680007b7          	lui	a5,0x68000
    61002630:	0ff77713          	zext.b	a4,a4
    61002634:	00e78023          	sb	a4,0(a5) # 68000000 <_sp+0x6fe0000>
    61002638:	0001                	nop
    6100263a:	0001                	nop
    6100263c:	6462                	ld	s0,24(sp)
    6100263e:	6105                	addi	sp,sp,32
    61002640:	8082                	ret

0000000061002642 <_premain_init>:
    61002642:	1141                	addi	sp,sp,-16
    61002644:	e406                	sd	ra,8(sp)
    61002646:	e022                	sd	s0,0(sp)
    61002648:	0800                	addi	s0,sp,16
    6100264a:	4681                	li	a3,0
    6100264c:	460d                	li	a2,3
    6100264e:	67f1                	lui	a5,0x1c
    61002650:	20078593          	addi	a1,a5,512 # 1c200 <__stack_size+0x1ba00>
    61002654:	3e100793          	li	a5,993
    61002658:	01679513          	slli	a0,a5,0x16
    6100265c:	80fff0ef          	jal	ra,61001e6a <AL9000_uart_init>
    61002660:	40a1                	li	ra,8
    61002662:	7d00b073          	csrc	mmisc_ctl,ra
    61002666:	ec1ff0ef          	jal	ra,61002526 <SystemBannerPrint>
    6100266a:	de1ff0ef          	jal	ra,6100244a <Exception_Init>
    6100266e:	f31ff0ef          	jal	ra,6100259e <ECLIC_Init>
    61002672:	0001                	nop
    61002674:	60a2                	ld	ra,8(sp)
    61002676:	6402                	ld	s0,0(sp)
    61002678:	0141                	addi	sp,sp,16
    6100267a:	8082                	ret

000000006100267c <_postmain_fini>:
    6100267c:	1101                	addi	sp,sp,-32
    6100267e:	ec22                	sd	s0,24(sp)
    61002680:	1000                	addi	s0,sp,32
    61002682:	87aa                	mv	a5,a0
    61002684:	fef42623          	sw	a5,-20(s0)
    61002688:	0001                	nop
    6100268a:	6462                	ld	s0,24(sp)
    6100268c:	6105                	addi	sp,sp,32
    6100268e:	8082                	ret

0000000061002690 <_init>:
    61002690:	1141                	addi	sp,sp,-16
    61002692:	e422                	sd	s0,8(sp)
    61002694:	0800                	addi	s0,sp,16
    61002696:	0001                	nop
    61002698:	6422                	ld	s0,8(sp)
    6100269a:	0141                	addi	sp,sp,16
    6100269c:	8082                	ret

000000006100269e <_fini>:
    6100269e:	1141                	addi	sp,sp,-16
    610026a0:	e422                	sd	s0,8(sp)
    610026a2:	0800                	addi	s0,sp,16
    610026a4:	0001                	nop
    610026a6:	6422                	ld	s0,8(sp)
    610026a8:	0141                	addi	sp,sp,16
    610026aa:	8082                	ret

00000000610026ac <iic_data_cheak>:
    610026ac:	7179                	addi	sp,sp,-48
    610026ae:	f406                	sd	ra,40(sp)
    610026b0:	f022                	sd	s0,32(sp)
    610026b2:	1800                	addi	s0,sp,48
    610026b4:	87aa                	mv	a5,a0
    610026b6:	fcf42e23          	sw	a5,-36(s0)
    610026ba:	fe0407a3          	sb	zero,-17(s0)
    610026be:	fe0407a3          	sb	zero,-17(s0)
    610026c2:	aaa1                	j	6100281a <iic_data_cheak+0x16e>
    610026c4:	fef44783          	lbu	a5,-17(s0)
    610026c8:	0ff7f793          	zext.b	a5,a5
    610026cc:	2781                	sext.w	a5,a5
    610026ce:	8b018713          	addi	a4,gp,-1872 # 61010160 <tx_buf1>
    610026d2:	97ba                	add	a5,a5,a4
    610026d4:	0007c783          	lbu	a5,0(a5)
    610026d8:	0007869b          	sext.w	a3,a5
    610026dc:	fef44783          	lbu	a5,-17(s0)
    610026e0:	0ff7f793          	zext.b	a5,a5
    610026e4:	0007871b          	sext.w	a4,a5
    610026e8:	1840c7b7          	lui	a5,0x1840c
    610026ec:	1407879b          	addiw	a5,a5,320
    610026f0:	9fb9                	addw	a5,a5,a4
    610026f2:	2781                	sext.w	a5,a5
    610026f4:	0027979b          	slliw	a5,a5,0x2
    610026f8:	2781                	sext.w	a5,a5
    610026fa:	439c                	lw	a5,0(a5)
    610026fc:	8736                	mv	a4,a3
    610026fe:	08f71163          	bne	a4,a5,61002780 <iic_data_cheak+0xd4>
    61002702:	fef44783          	lbu	a5,-17(s0)
    61002706:	0ff7f793          	zext.b	a5,a5
    6100270a:	0007871b          	sext.w	a4,a5
    6100270e:	1840c7b7          	lui	a5,0x1840c
    61002712:	9fb9                	addw	a5,a5,a4
    61002714:	2781                	sext.w	a5,a5
    61002716:	0027979b          	slliw	a5,a5,0x2
    6100271a:	2781                	sext.w	a5,a5
    6100271c:	439c                	lw	a5,0(a5)
    6100271e:	85be                	mv	a1,a5
    61002720:	00002517          	auipc	a0,0x2
    61002724:	dc850513          	addi	a0,a0,-568 # 610044e8 <_read_r+0x1f6>
    61002728:	6d4000ef          	jal	ra,61002dfc <iprintf>
    6100272c:	00002517          	auipc	a0,0x2
    61002730:	dcc50513          	addi	a0,a0,-564 # 610044f8 <_read_r+0x206>
    61002734:	7ec000ef          	jal	ra,61002f20 <puts>
    61002738:	fef44783          	lbu	a5,-17(s0)
    6100273c:	0ff7f793          	zext.b	a5,a5
    61002740:	0007871b          	sext.w	a4,a5
    61002744:	1840c7b7          	lui	a5,0x1840c
    61002748:	1407879b          	addiw	a5,a5,320
    6100274c:	9fb9                	addw	a5,a5,a4
    6100274e:	2781                	sext.w	a5,a5
    61002750:	0027979b          	slliw	a5,a5,0x2
    61002754:	2781                	sext.w	a5,a5
    61002756:	439c                	lw	a5,0(a5)
    61002758:	85be                	mv	a1,a5
    6100275a:	00002517          	auipc	a0,0x2
    6100275e:	da650513          	addi	a0,a0,-602 # 61004500 <_read_r+0x20e>
    61002762:	69a000ef          	jal	ra,61002dfc <iprintf>
    61002766:	00002517          	auipc	a0,0x2
    6100276a:	d9250513          	addi	a0,a0,-622 # 610044f8 <_read_r+0x206>
    6100276e:	7b2000ef          	jal	ra,61002f20 <puts>
    61002772:	00002517          	auipc	a0,0x2
    61002776:	d9e50513          	addi	a0,a0,-610 # 61004510 <_read_r+0x21e>
    6100277a:	7a6000ef          	jal	ra,61002f20 <puts>
    6100277e:	a8bd                	j	610027fc <iic_data_cheak+0x150>
    61002780:	fef44783          	lbu	a5,-17(s0)
    61002784:	0ff7f793          	zext.b	a5,a5
    61002788:	0007871b          	sext.w	a4,a5
    6100278c:	1840c7b7          	lui	a5,0x1840c
    61002790:	9fb9                	addw	a5,a5,a4
    61002792:	2781                	sext.w	a5,a5
    61002794:	0027979b          	slliw	a5,a5,0x2
    61002798:	2781                	sext.w	a5,a5
    6100279a:	439c                	lw	a5,0(a5)
    6100279c:	85be                	mv	a1,a5
    6100279e:	00002517          	auipc	a0,0x2
    610027a2:	d4a50513          	addi	a0,a0,-694 # 610044e8 <_read_r+0x1f6>
    610027a6:	656000ef          	jal	ra,61002dfc <iprintf>
    610027aa:	00002517          	auipc	a0,0x2
    610027ae:	d4e50513          	addi	a0,a0,-690 # 610044f8 <_read_r+0x206>
    610027b2:	76e000ef          	jal	ra,61002f20 <puts>
    610027b6:	fef44783          	lbu	a5,-17(s0)
    610027ba:	0ff7f793          	zext.b	a5,a5
    610027be:	0007871b          	sext.w	a4,a5
    610027c2:	1840c7b7          	lui	a5,0x1840c
    610027c6:	1407879b          	addiw	a5,a5,320
    610027ca:	9fb9                	addw	a5,a5,a4
    610027cc:	2781                	sext.w	a5,a5
    610027ce:	0027979b          	slliw	a5,a5,0x2
    610027d2:	2781                	sext.w	a5,a5
    610027d4:	439c                	lw	a5,0(a5)
    610027d6:	85be                	mv	a1,a5
    610027d8:	00002517          	auipc	a0,0x2
    610027dc:	d2850513          	addi	a0,a0,-728 # 61004500 <_read_r+0x20e>
    610027e0:	61c000ef          	jal	ra,61002dfc <iprintf>
    610027e4:	00002517          	auipc	a0,0x2
    610027e8:	d1450513          	addi	a0,a0,-748 # 610044f8 <_read_r+0x206>
    610027ec:	734000ef          	jal	ra,61002f20 <puts>
    610027f0:	00002517          	auipc	a0,0x2
    610027f4:	d3850513          	addi	a0,a0,-712 # 61004528 <_read_r+0x236>
    610027f8:	728000ef          	jal	ra,61002f20 <puts>
    610027fc:	00002517          	auipc	a0,0x2
    61002800:	cfc50513          	addi	a0,a0,-772 # 610044f8 <_read_r+0x206>
    61002804:	71c000ef          	jal	ra,61002f20 <puts>
    61002808:	fef44783          	lbu	a5,-17(s0)
    6100280c:	0ff7f793          	zext.b	a5,a5
    61002810:	2785                	addiw	a5,a5,1
    61002812:	0ff7f793          	zext.b	a5,a5
    61002816:	fef407a3          	sb	a5,-17(s0)
    6100281a:	fef44783          	lbu	a5,-17(s0)
    6100281e:	0ff7f793          	zext.b	a5,a5
    61002822:	0007871b          	sext.w	a4,a5
    61002826:	fdc42783          	lw	a5,-36(s0)
    6100282a:	2781                	sext.w	a5,a5
    6100282c:	e8f76ce3          	bltu	a4,a5,610026c4 <iic_data_cheak+0x18>
    61002830:	0001                	nop
    61002832:	0001                	nop
    61002834:	70a2                	ld	ra,40(sp)
    61002836:	7402                	ld	s0,32(sp)
    61002838:	6145                	addi	sp,sp,48
    6100283a:	8082                	ret

000000006100283c <i2c_e2prom>:
    6100283c:	7179                	addi	sp,sp,-48
    6100283e:	f406                	sd	ra,40(sp)
    61002840:	f022                	sd	s0,32(sp)
    61002842:	1800                	addi	s0,sp,48
    61002844:	fca43c23          	sd	a0,-40(s0)
    61002848:	0000e797          	auipc	a5,0xe
    6100284c:	88878793          	addi	a5,a5,-1912 # 610100d0 <amount0>
    61002850:	473d                	li	a4,15
    61002852:	00e78023          	sb	a4,0(a5)
    61002856:	fe0401a3          	sb	zero,-29(s0)
    6100285a:	fe0407a3          	sb	zero,-17(s0)
    6100285e:	fe042423          	sw	zero,-24(s0)
    61002862:	fd843503          	ld	a0,-40(s0)
    61002866:	8a6ff0ef          	jal	ra,6100190c <i2c_disable>
    6100286a:	06400593          	li	a1,100
    6100286e:	fd843503          	ld	a0,-40(s0)
    61002872:	c8cff0ef          	jal	ra,61001cfe <i2c_clock_setup>
    61002876:	4589                	li	a1,2
    61002878:	fd843503          	ld	a0,-40(s0)
    6100287c:	990ff0ef          	jal	ra,61001a0c <i2c_setSpeedMode>
    61002880:	4581                	li	a1,0
    61002882:	fd843503          	ld	a0,-40(s0)
    61002886:	9baff0ef          	jal	ra,61001a40 <i2c_setMasterAddressMode>
    6100288a:	fd843503          	ld	a0,-40(s0)
    6100288e:	9e6ff0ef          	jal	ra,61001a74 <i2c_enableMaster>
    61002892:	05000593          	li	a1,80
    61002896:	fd843503          	ld	a0,-40(s0)
    6100289a:	9f8ff0ef          	jal	ra,61001a92 <i2c_setTargetAddress>
    6100289e:	4841                	li	a6,16
    610028a0:	4781                	li	a5,0
    610028a2:	4701                	li	a4,0
    610028a4:	4681                	li	a3,0
    610028a6:	4601                	li	a2,0
    610028a8:	4581                	li	a1,0
    610028aa:	000f8537          	lui	a0,0xf8
    610028ae:	04d50513          	addi	a0,a0,77 # f804d <__stack_size+0xf784d>
    610028b2:	0532                	slli	a0,a0,0xc
    610028b4:	e43fe0ef          	jal	ra,610016f6 <I2C_dma_Init>
    610028b8:	21000593          	li	a1,528
    610028bc:	fd843503          	ld	a0,-40(s0)
    610028c0:	b2eff0ef          	jal	ra,61001bee <i2c_irq_mask>
    610028c4:	0000e797          	auipc	a5,0xe
    610028c8:	80c78793          	addi	a5,a5,-2036 # 610100d0 <amount0>
    610028cc:	0007c783          	lbu	a5,0(a5)
    610028d0:	85be                	mv	a1,a5
    610028d2:	fd843503          	ld	a0,-40(s0)
    610028d6:	b3aff0ef          	jal	ra,61001c10 <i2c_txThr>
    610028da:	458d                	li	a1,3
    610028dc:	fd843503          	ld	a0,-40(s0)
    610028e0:	b7cff0ef          	jal	ra,61001c5c <i2c_sdaHold_tx>
    610028e4:	4591                	li	a1,4
    610028e6:	fd843503          	ld	a0,-40(s0)
    610028ea:	b96ff0ef          	jal	ra,61001c80 <i2c_spklen>
    610028ee:	fd843503          	ld	a0,-40(s0)
    610028f2:	bb6ff0ef          	jal	ra,61001ca8 <i2c_irq_clrAll>
    610028f6:	fd843503          	ld	a0,-40(s0)
    610028fa:	82eff0ef          	jal	ra,61001928 <i2c_enable>
    610028fe:	4601                	li	a2,0
    61002900:	4581                	li	a1,0
    61002902:	fd843503          	ld	a0,-40(s0)
    61002906:	9c8ff0ef          	jal	ra,61001ace <i2c_write>
    6100290a:	4601                	li	a2,0
    6100290c:	4581                	li	a1,0
    6100290e:	fd843503          	ld	a0,-40(s0)
    61002912:	9bcff0ef          	jal	ra,61001ace <i2c_write>
    61002916:	03e017b7          	lui	a5,0x3e01
    6100291a:	34b78793          	addi	a5,a5,843 # 3e0134b <__stack_size+0x3e00b4b>
    6100291e:	00679513          	slli	a0,a5,0x6
    61002922:	a95fd0ef          	jal	ra,610003b6 <dw_dmac_enable>
    61002926:	4581                	li	a1,0
    61002928:	03e017b7          	lui	a5,0x3e01
    6100292c:	34b78793          	addi	a5,a5,843 # 3e0134b <__stack_size+0x3e00b4b>
    61002930:	00679513          	slli	a0,a5,0x6
    61002934:	ae3fd0ef          	jal	ra,61000416 <dw_dmac_enableChannel>
    61002938:	fd843503          	ld	a0,-40(s0)
    6100293c:	b6cff0ef          	jal	ra,61001ca8 <i2c_irq_clrAll>
    61002940:	fd843503          	ld	a0,-40(s0)
    61002944:	b86ff0ef          	jal	ra,61001cca <i2c_irq_stat>
    61002948:	87aa                	mv	a5,a0
    6100294a:	0007871b          	sext.w	a4,a5
    6100294e:	0000d797          	auipc	a5,0xd
    61002952:	78678793          	addi	a5,a5,1926 # 610100d4 <rdata0_0>
    61002956:	c398                	sw	a4,0(a5)
    61002958:	fd843503          	ld	a0,-40(s0)
    6100295c:	b6eff0ef          	jal	ra,61001cca <i2c_irq_stat>
    61002960:	87aa                	mv	a5,a0
    61002962:	2781                	sext.w	a5,a5
    61002964:	2007f793          	andi	a5,a5,512
    61002968:	2781                	sext.w	a5,a5
    6100296a:	dbf9                	beqz	a5,61002940 <i2c_e2prom+0x104>
    6100296c:	0001                	nop
    6100296e:	fd843503          	ld	a0,-40(s0)
    61002972:	b72ff0ef          	jal	ra,61001ce4 <i2c_status>
    61002976:	87aa                	mv	a5,a0
    61002978:	2781                	sext.w	a5,a5
    6100297a:	0207f793          	andi	a5,a5,32
    6100297e:	2781                	sext.w	a5,a5
    61002980:	f7fd                	bnez	a5,6100296e <i2c_e2prom+0x132>
    61002982:	0001                	nop
    61002984:	03e017b7          	lui	a5,0x3e01
    61002988:	34b78793          	addi	a5,a5,843 # 3e0134b <__stack_size+0x3e00b4b>
    6100298c:	00679513          	slli	a0,a5,0x6
    61002990:	a25fe0ef          	jal	ra,610013b4 <dw_dmac_checkChannelBusy>
    61002994:	87aa                	mv	a5,a0
    61002996:	f7fd                	bnez	a5,61002984 <i2c_e2prom+0x148>
    61002998:	03e017b7          	lui	a5,0x3e01
    6100299c:	34b78793          	addi	a5,a5,843 # 3e0134b <__stack_size+0x3e00b4b>
    610029a0:	00679513          	slli	a0,a5,0x6
    610029a4:	a3ffd0ef          	jal	ra,610003e2 <dw_dmac_disable>
    610029a8:	4581                	li	a1,0
    610029aa:	03e017b7          	lui	a5,0x3e01
    610029ae:	34b78793          	addi	a5,a5,843 # 3e0134b <__stack_size+0x3e00b4b>
    610029b2:	00679513          	slli	a0,a5,0x6
    610029b6:	be5fd0ef          	jal	ra,6100059a <dw_dmac_disableChannel>
    610029ba:	fe842783          	lw	a5,-24(s0)
    610029be:	2785                	addiw	a5,a5,1
    610029c0:	fef42423          	sw	a5,-24(s0)
    610029c4:	fe842783          	lw	a5,-24(s0)
    610029c8:	0007871b          	sext.w	a4,a5
    610029cc:	6785                	lui	a5,0x1
    610029ce:	bb778793          	addi	a5,a5,-1097 # bb7 <__stack_size+0x3b7>
    610029d2:	fee7f4e3          	bgeu	a5,a4,610029ba <i2c_e2prom+0x17e>
    610029d6:	00002517          	auipc	a0,0x2
    610029da:	b8a50513          	addi	a0,a0,-1142 # 61004560 <_read_r+0x26e>
    610029de:	542000ef          	jal	ra,61002f20 <puts>
    610029e2:	fd843503          	ld	a0,-40(s0)
    610029e6:	f27fe0ef          	jal	ra,6100190c <i2c_disable>
    610029ea:	06400593          	li	a1,100
    610029ee:	fd843503          	ld	a0,-40(s0)
    610029f2:	b0cff0ef          	jal	ra,61001cfe <i2c_clock_setup>
    610029f6:	4589                	li	a1,2
    610029f8:	fd843503          	ld	a0,-40(s0)
    610029fc:	810ff0ef          	jal	ra,61001a0c <i2c_setSpeedMode>
    61002a00:	4581                	li	a1,0
    61002a02:	fd843503          	ld	a0,-40(s0)
    61002a06:	83aff0ef          	jal	ra,61001a40 <i2c_setMasterAddressMode>
    61002a0a:	483d                	li	a6,15
    61002a0c:	4781                	li	a5,0
    61002a0e:	4701                	li	a4,0
    61002a10:	4681                	li	a3,0
    61002a12:	4605                	li	a2,1
    61002a14:	4581                	li	a1,0
    61002a16:	000f8537          	lui	a0,0xf8
    61002a1a:	04d50513          	addi	a0,a0,77 # f804d <__stack_size+0xf784d>
    61002a1e:	0532                	slli	a0,a0,0xc
    61002a20:	cd7fe0ef          	jal	ra,610016f6 <I2C_dma_Init>
    61002a24:	fd843503          	ld	a0,-40(s0)
    61002a28:	84cff0ef          	jal	ra,61001a74 <i2c_enableMaster>
    61002a2c:	21400593          	li	a1,532
    61002a30:	fd843503          	ld	a0,-40(s0)
    61002a34:	9baff0ef          	jal	ra,61001bee <i2c_irq_mask>
    61002a38:	0000d797          	auipc	a5,0xd
    61002a3c:	69878793          	addi	a5,a5,1688 # 610100d0 <amount0>
    61002a40:	0007c783          	lbu	a5,0(a5)
    61002a44:	85be                	mv	a1,a5
    61002a46:	fd843503          	ld	a0,-40(s0)
    61002a4a:	9c6ff0ef          	jal	ra,61001c10 <i2c_txThr>
    61002a4e:	0000d797          	auipc	a5,0xd
    61002a52:	68278793          	addi	a5,a5,1666 # 610100d0 <amount0>
    61002a56:	0007c783          	lbu	a5,0(a5)
    61002a5a:	37fd                	addiw	a5,a5,-1
    61002a5c:	0ff7f793          	zext.b	a5,a5
    61002a60:	85be                	mv	a1,a5
    61002a62:	fd843503          	ld	a0,-40(s0)
    61002a66:	9d0ff0ef          	jal	ra,61001c36 <i2c_rxThr>
    61002a6a:	4595                	li	a1,5
    61002a6c:	fd843503          	ld	a0,-40(s0)
    61002a70:	9ecff0ef          	jal	ra,61001c5c <i2c_sdaHold_tx>
    61002a74:	4595                	li	a1,5
    61002a76:	fd843503          	ld	a0,-40(s0)
    61002a7a:	a06ff0ef          	jal	ra,61001c80 <i2c_spklen>
    61002a7e:	fd843503          	ld	a0,-40(s0)
    61002a82:	a26ff0ef          	jal	ra,61001ca8 <i2c_irq_clrAll>
    61002a86:	fd843503          	ld	a0,-40(s0)
    61002a8a:	e9ffe0ef          	jal	ra,61001928 <i2c_enable>
    61002a8e:	4601                	li	a2,0
    61002a90:	4581                	li	a1,0
    61002a92:	fd843503          	ld	a0,-40(s0)
    61002a96:	838ff0ef          	jal	ra,61001ace <i2c_write>
    61002a9a:	4601                	li	a2,0
    61002a9c:	4581                	li	a1,0
    61002a9e:	fd843503          	ld	a0,-40(s0)
    61002aa2:	82cff0ef          	jal	ra,61001ace <i2c_write>
    61002aa6:	fe0407a3          	sb	zero,-17(s0)
    61002aaa:	fd843503          	ld	a0,-40(s0)
    61002aae:	a1cff0ef          	jal	ra,61001cca <i2c_irq_stat>
    61002ab2:	87aa                	mv	a5,a0
    61002ab4:	0007871b          	sext.w	a4,a5
    61002ab8:	0000d797          	auipc	a5,0xd
    61002abc:	61c78793          	addi	a5,a5,1564 # 610100d4 <rdata0_0>
    61002ac0:	c398                	sw	a4,0(a5)
    61002ac2:	0000d797          	auipc	a5,0xd
    61002ac6:	61278793          	addi	a5,a5,1554 # 610100d4 <rdata0_0>
    61002aca:	439c                	lw	a5,0(a5)
    61002acc:	2007f793          	andi	a5,a5,512
    61002ad0:	2781                	sext.w	a5,a5
    61002ad2:	e7d1                	bnez	a5,61002b5e <i2c_e2prom+0x322>
    61002ad4:	0000d797          	auipc	a5,0xd
    61002ad8:	5fc78793          	addi	a5,a5,1532 # 610100d0 <amount0>
    61002adc:	0007c703          	lbu	a4,0(a5)
    61002ae0:	fef44783          	lbu	a5,-17(s0)
    61002ae4:	0ff7f793          	zext.b	a5,a5
    61002ae8:	06e7fb63          	bgeu	a5,a4,61002b5e <i2c_e2prom+0x322>
    61002aec:	0000d797          	auipc	a5,0xd
    61002af0:	5e878793          	addi	a5,a5,1512 # 610100d4 <rdata0_0>
    61002af4:	439c                	lw	a5,0(a5)
    61002af6:	8bc1                	andi	a5,a5,16
    61002af8:	2781                	sext.w	a5,a5
    61002afa:	c3b5                	beqz	a5,61002b5e <i2c_e2prom+0x322>
    61002afc:	fe042223          	sw	zero,-28(s0)
    61002b00:	a091                	j	61002b44 <i2c_e2prom+0x308>
    61002b02:	fef44783          	lbu	a5,-17(s0)
    61002b06:	2785                	addiw	a5,a5,1
    61002b08:	fef407a3          	sb	a5,-17(s0)
    61002b0c:	0000d797          	auipc	a5,0xd
    61002b10:	5c478793          	addi	a5,a5,1476 # 610100d0 <amount0>
    61002b14:	0007c703          	lbu	a4,0(a5)
    61002b18:	fef44783          	lbu	a5,-17(s0)
    61002b1c:	0ff7f793          	zext.b	a5,a5
    61002b20:	00e79863          	bne	a5,a4,61002b30 <i2c_e2prom+0x2f4>
    61002b24:	4585                	li	a1,1
    61002b26:	fd843503          	ld	a0,-40(s0)
    61002b2a:	84cff0ef          	jal	ra,61001b76 <i2c_issueRead>
    61002b2e:	a805                	j	61002b5e <i2c_e2prom+0x322>
    61002b30:	4581                	li	a1,0
    61002b32:	fd843503          	ld	a0,-40(s0)
    61002b36:	840ff0ef          	jal	ra,61001b76 <i2c_issueRead>
    61002b3a:	fe442783          	lw	a5,-28(s0)
    61002b3e:	2785                	addiw	a5,a5,1
    61002b40:	fef42223          	sw	a5,-28(s0)
    61002b44:	0000d797          	auipc	a5,0xd
    61002b48:	58c78793          	addi	a5,a5,1420 # 610100d0 <amount0>
    61002b4c:	0007c783          	lbu	a5,0(a5)
    61002b50:	0007871b          	sext.w	a4,a5
    61002b54:	fe442783          	lw	a5,-28(s0)
    61002b58:	2781                	sext.w	a5,a5
    61002b5a:	fae7c4e3          	blt	a5,a4,61002b02 <i2c_e2prom+0x2c6>
    61002b5e:	00002517          	auipc	a0,0x2
    61002b62:	a1a50513          	addi	a0,a0,-1510 # 61004578 <_read_r+0x286>
    61002b66:	3ba000ef          	jal	ra,61002f20 <puts>
    61002b6a:	0000d797          	auipc	a5,0xd
    61002b6e:	56a78793          	addi	a5,a5,1386 # 610100d4 <rdata0_0>
    61002b72:	439c                	lw	a5,0(a5)
    61002b74:	2007f793          	andi	a5,a5,512
    61002b78:	2781                	sext.w	a5,a5
    61002b7a:	db85                	beqz	a5,61002aaa <i2c_e2prom+0x26e>
    61002b7c:	00002517          	auipc	a0,0x2
    61002b80:	a1450513          	addi	a0,a0,-1516 # 61004590 <_read_r+0x29e>
    61002b84:	39c000ef          	jal	ra,61002f20 <puts>
    61002b88:	fd843503          	ld	a0,-40(s0)
    61002b8c:	93eff0ef          	jal	ra,61001cca <i2c_irq_stat>
    61002b90:	87aa                	mv	a5,a0
    61002b92:	0007871b          	sext.w	a4,a5
    61002b96:	0000d797          	auipc	a5,0xd
    61002b9a:	53e78793          	addi	a5,a5,1342 # 610100d4 <rdata0_0>
    61002b9e:	c398                	sw	a4,0(a5)
    61002ba0:	0000d797          	auipc	a5,0xd
    61002ba4:	53478793          	addi	a5,a5,1332 # 610100d4 <rdata0_0>
    61002ba8:	439c                	lw	a5,0(a5)
    61002baa:	8b91                	andi	a5,a5,4
    61002bac:	2781                	sext.w	a5,a5
    61002bae:	c395                	beqz	a5,61002bd2 <i2c_e2prom+0x396>
    61002bb0:	03e017b7          	lui	a5,0x3e01
    61002bb4:	34b78793          	addi	a5,a5,843 # 3e0134b <__stack_size+0x3e00b4b>
    61002bb8:	00679513          	slli	a0,a5,0x6
    61002bbc:	ffafd0ef          	jal	ra,610003b6 <dw_dmac_enable>
    61002bc0:	4581                	li	a1,0
    61002bc2:	03e017b7          	lui	a5,0x3e01
    61002bc6:	34b78793          	addi	a5,a5,843 # 3e0134b <__stack_size+0x3e00b4b>
    61002bca:	00679513          	slli	a0,a5,0x6
    61002bce:	849fd0ef          	jal	ra,61000416 <dw_dmac_enableChannel>
    61002bd2:	fd843503          	ld	a0,-40(s0)
    61002bd6:	8d2ff0ef          	jal	ra,61001ca8 <i2c_irq_clrAll>
    61002bda:	0001                	nop
    61002bdc:	fd843503          	ld	a0,-40(s0)
    61002be0:	904ff0ef          	jal	ra,61001ce4 <i2c_status>
    61002be4:	87aa                	mv	a5,a0
    61002be6:	2781                	sext.w	a5,a5
    61002be8:	0207f793          	andi	a5,a5,32
    61002bec:	2781                	sext.w	a5,a5
    61002bee:	f7fd                	bnez	a5,61002bdc <i2c_e2prom+0x3a0>
    61002bf0:	0001                	nop
    61002bf2:	03e017b7          	lui	a5,0x3e01
    61002bf6:	34b78793          	addi	a5,a5,843 # 3e0134b <__stack_size+0x3e00b4b>
    61002bfa:	00679513          	slli	a0,a5,0x6
    61002bfe:	fb6fe0ef          	jal	ra,610013b4 <dw_dmac_checkChannelBusy>
    61002c02:	87aa                	mv	a5,a0
    61002c04:	f7fd                	bnez	a5,61002bf2 <i2c_e2prom+0x3b6>
    61002c06:	03e017b7          	lui	a5,0x3e01
    61002c0a:	34b78793          	addi	a5,a5,843 # 3e0134b <__stack_size+0x3e00b4b>
    61002c0e:	00679513          	slli	a0,a5,0x6
    61002c12:	fd0fd0ef          	jal	ra,610003e2 <dw_dmac_disable>
    61002c16:	4581                	li	a1,0
    61002c18:	03e017b7          	lui	a5,0x3e01
    61002c1c:	34b78793          	addi	a5,a5,843 # 3e0134b <__stack_size+0x3e00b4b>
    61002c20:	00679513          	slli	a0,a5,0x6
    61002c24:	977fd0ef          	jal	ra,6100059a <dw_dmac_disableChannel>
    61002c28:	fd843503          	ld	a0,-40(s0)
    61002c2c:	ce1fe0ef          	jal	ra,6100190c <i2c_disable>
    61002c30:	00002517          	auipc	a0,0x2
    61002c34:	98050513          	addi	a0,a0,-1664 # 610045b0 <_read_r+0x2be>
    61002c38:	2e8000ef          	jal	ra,61002f20 <puts>
    61002c3c:	4781                	li	a5,0
    61002c3e:	853e                	mv	a0,a5
    61002c40:	70a2                	ld	ra,40(sp)
    61002c42:	7402                	ld	s0,32(sp)
    61002c44:	6145                	addi	sp,sp,48
    61002c46:	8082                	ret

0000000061002c48 <main>:
    61002c48:	712d                	addi	sp,sp,-288
    61002c4a:	ee06                	sd	ra,280(sp)
    61002c4c:	ea22                	sd	s0,272(sp)
    61002c4e:	1200                	addi	s0,sp,288
    61002c50:	fe042623          	sw	zero,-20(s0)
    61002c54:	ee0403a3          	sb	zero,-281(s0)
    61002c58:	a02d                	j	61002c82 <main+0x3a>
    61002c5a:	ee744783          	lbu	a5,-281(s0)
    61002c5e:	0ff7f793          	zext.b	a5,a5
    61002c62:	2781                	sext.w	a5,a5
    61002c64:	078a                	slli	a5,a5,0x2
    61002c66:	ff040713          	addi	a4,s0,-16
    61002c6a:	97ba                	add	a5,a5,a4
    61002c6c:	ee07ac23          	sw	zero,-264(a5)
    61002c70:	ee744783          	lbu	a5,-281(s0)
    61002c74:	0ff7f793          	zext.b	a5,a5
    61002c78:	2785                	addiw	a5,a5,1
    61002c7a:	0ff7f793          	zext.b	a5,a5
    61002c7e:	eef403a3          	sb	a5,-281(s0)
    61002c82:	ee744783          	lbu	a5,-281(s0)
    61002c86:	0ff7f793          	zext.b	a5,a5
    61002c8a:	873e                	mv	a4,a5
    61002c8c:	06300793          	li	a5,99
    61002c90:	fce7f5e3          	bgeu	a5,a4,61002c5a <main+0x12>
    61002c94:	ee840793          	addi	a5,s0,-280
    61002c98:	61030637          	lui	a2,0x61030
    61002c9c:	04000593          	li	a1,64
    61002ca0:	853e                	mv	a0,a5
    61002ca2:	fa0fe0ef          	jal	ra,61001442 <write_To_OCM>
    61002ca6:	ee840713          	addi	a4,s0,-280
    61002caa:	610307b7          	lui	a5,0x61030
    61002cae:	50078613          	addi	a2,a5,1280 # 61030500 <_sp+0x10500>
    61002cb2:	04000593          	li	a1,64
    61002cb6:	853a                	mv	a0,a4
    61002cb8:	f8afe0ef          	jal	ra,61001442 <write_To_OCM>
    61002cbc:	ee040323          	sb	zero,-282(s0)
    61002cc0:	a8b1                	j	61002d1c <main+0xd4>
    61002cc2:	ee644783          	lbu	a5,-282(s0)
    61002cc6:	0ff7f793          	zext.b	a5,a5
    61002cca:	2781                	sext.w	a5,a5
    61002ccc:	ee644703          	lbu	a4,-282(s0)
    61002cd0:	0ff77713          	zext.b	a4,a4
    61002cd4:	8b018693          	addi	a3,gp,-1872 # 61010160 <tx_buf1>
    61002cd8:	97b6                	add	a5,a5,a3
    61002cda:	00e78023          	sb	a4,0(a5)
    61002cde:	ee644783          	lbu	a5,-282(s0)
    61002ce2:	0ff7f793          	zext.b	a5,a5
    61002ce6:	873e                	mv	a4,a5
    61002ce8:	47bd                	li	a5,15
    61002cea:	02f71063          	bne	a4,a5,61002d0a <main+0xc2>
    61002cee:	ee644783          	lbu	a5,-282(s0)
    61002cf2:	0ff7f793          	zext.b	a5,a5
    61002cf6:	2781                	sext.w	a5,a5
    61002cf8:	ee644703          	lbu	a4,-282(s0)
    61002cfc:	0ff77713          	zext.b	a4,a4
    61002d00:	8b018693          	addi	a3,gp,-1872 # 61010160 <tx_buf1>
    61002d04:	97b6                	add	a5,a5,a3
    61002d06:	00e78023          	sb	a4,0(a5)
    61002d0a:	ee644783          	lbu	a5,-282(s0)
    61002d0e:	0ff7f793          	zext.b	a5,a5
    61002d12:	2785                	addiw	a5,a5,1
    61002d14:	0ff7f793          	zext.b	a5,a5
    61002d18:	eef40323          	sb	a5,-282(s0)
    61002d1c:	ee644783          	lbu	a5,-282(s0)
    61002d20:	0ff7f793          	zext.b	a5,a5
    61002d24:	873e                	mv	a4,a5
    61002d26:	47bd                	li	a5,15
    61002d28:	f8e7fde3          	bgeu	a5,a4,61002cc2 <main+0x7a>
    61002d2c:	00002517          	auipc	a0,0x2
    61002d30:	89c50513          	addi	a0,a0,-1892 # 610045c8 <_read_r+0x2d6>
    61002d34:	1ec000ef          	jal	ra,61002f20 <puts>
    61002d38:	45c1                	li	a1,16
    61002d3a:	4501                	li	a0,0
    61002d3c:	f6efe0ef          	jal	ra,610014aa <write_iic_data>
    61002d40:	3e1057b7          	lui	a5,0x3e105
    61002d44:	00279513          	slli	a0,a5,0x2
    61002d48:	af5ff0ef          	jal	ra,6100283c <i2c_e2prom>
    61002d4c:	453d                	li	a0,15
    61002d4e:	95fff0ef          	jal	ra,610026ac <iic_data_cheak>
    61002d52:	4781                	li	a5,0
    61002d54:	853e                	mv	a0,a5
    61002d56:	60f2                	ld	ra,280(sp)
    61002d58:	6452                	ld	s0,272(sp)
    61002d5a:	6115                	addi	sp,sp,288
    61002d5c:	8082                	ret

0000000061002d5e <atexit>:
    61002d5e:	85aa                	mv	a1,a0
    61002d60:	4681                	li	a3,0
    61002d62:	4601                	li	a2,0
    61002d64:	4501                	li	a0,0
    61002d66:	a325                	j	6100328e <__register_exitproc>

0000000061002d68 <__libc_fini_array>:
    61002d68:	1101                	addi	sp,sp,-32
    61002d6a:	e822                	sd	s0,16(sp)
    61002d6c:	e426                	sd	s1,8(sp)
    61002d6e:	00002417          	auipc	s0,0x2
    61002d72:	9ce40413          	addi	s0,s0,-1586 # 6100473c <__fsymtab_end>
    61002d76:	00002497          	auipc	s1,0x2
    61002d7a:	9c648493          	addi	s1,s1,-1594 # 6100473c <__fsymtab_end>
    61002d7e:	8c05                	sub	s0,s0,s1
    61002d80:	ec06                	sd	ra,24(sp)
    61002d82:	840d                	srai	s0,s0,0x3
    61002d84:	e411                	bnez	s0,61002d90 <__libc_fini_array+0x28>
    61002d86:	60e2                	ld	ra,24(sp)
    61002d88:	6442                	ld	s0,16(sp)
    61002d8a:	64a2                	ld	s1,8(sp)
    61002d8c:	6105                	addi	sp,sp,32
    61002d8e:	8082                	ret
    61002d90:	147d                	addi	s0,s0,-1
    61002d92:	00341793          	slli	a5,s0,0x3
    61002d96:	97a6                	add	a5,a5,s1
    61002d98:	639c                	ld	a5,0(a5)
    61002d9a:	9782                	jalr	a5
    61002d9c:	b7e5                	j	61002d84 <__libc_fini_array+0x1c>

0000000061002d9e <__libc_init_array>:
    61002d9e:	1101                	addi	sp,sp,-32
    61002da0:	e822                	sd	s0,16(sp)
    61002da2:	e426                	sd	s1,8(sp)
    61002da4:	00002417          	auipc	s0,0x2
    61002da8:	99840413          	addi	s0,s0,-1640 # 6100473c <__fsymtab_end>
    61002dac:	00002497          	auipc	s1,0x2
    61002db0:	99048493          	addi	s1,s1,-1648 # 6100473c <__fsymtab_end>
    61002db4:	8c81                	sub	s1,s1,s0
    61002db6:	e04a                	sd	s2,0(sp)
    61002db8:	ec06                	sd	ra,24(sp)
    61002dba:	848d                	srai	s1,s1,0x3
    61002dbc:	4901                	li	s2,0
    61002dbe:	02991563          	bne	s2,s1,61002de8 <__libc_init_array+0x4a>
    61002dc2:	00002417          	auipc	s0,0x2
    61002dc6:	97a40413          	addi	s0,s0,-1670 # 6100473c <__fsymtab_end>
    61002dca:	00002497          	auipc	s1,0x2
    61002dce:	97248493          	addi	s1,s1,-1678 # 6100473c <__fsymtab_end>
    61002dd2:	8c81                	sub	s1,s1,s0
    61002dd4:	848d                	srai	s1,s1,0x3
    61002dd6:	4901                	li	s2,0
    61002dd8:	00991d63          	bne	s2,s1,61002df2 <__libc_init_array+0x54>
    61002ddc:	60e2                	ld	ra,24(sp)
    61002dde:	6442                	ld	s0,16(sp)
    61002de0:	64a2                	ld	s1,8(sp)
    61002de2:	6902                	ld	s2,0(sp)
    61002de4:	6105                	addi	sp,sp,32
    61002de6:	8082                	ret
    61002de8:	601c                	ld	a5,0(s0)
    61002dea:	0905                	addi	s2,s2,1
    61002dec:	0421                	addi	s0,s0,8
    61002dee:	9782                	jalr	a5
    61002df0:	b7f9                	j	61002dbe <__libc_init_array+0x20>
    61002df2:	601c                	ld	a5,0(s0)
    61002df4:	0905                	addi	s2,s2,1
    61002df6:	0421                	addi	s0,s0,8
    61002df8:	9782                	jalr	a5
    61002dfa:	bff9                	j	61002dd8 <__libc_init_array+0x3a>

0000000061002dfc <iprintf>:
    61002dfc:	7159                	addi	sp,sp,-112
    61002dfe:	f022                	sd	s0,32(sp)
    61002e00:	f406                	sd	ra,40(sp)
    61002e02:	842a                	mv	s0,a0
    61002e04:	fc2e                	sd	a1,56(sp)
    61002e06:	e0b2                	sd	a2,64(sp)
    61002e08:	e4b6                	sd	a3,72(sp)
    61002e0a:	e8ba                	sd	a4,80(sp)
    61002e0c:	ecbe                	sd	a5,88(sp)
    61002e0e:	f0c2                	sd	a6,96(sp)
    61002e10:	f4c6                	sd	a7,104(sp)
    61002e12:	8101b503          	ld	a0,-2032(gp) # 610100c0 <_impure_ptr>
    61002e16:	c519                	beqz	a0,61002e24 <iprintf+0x28>
    61002e18:	591c                	lw	a5,48(a0)
    61002e1a:	e789                	bnez	a5,61002e24 <iprintf+0x28>
    61002e1c:	e42a                	sd	a0,8(sp)
    61002e1e:	742000ef          	jal	ra,61003560 <__sinit>
    61002e22:	6522                	ld	a0,8(sp)
    61002e24:	690c                	ld	a1,16(a0)
    61002e26:	1834                	addi	a3,sp,56
    61002e28:	8622                	mv	a2,s0
    61002e2a:	ec36                	sd	a3,24(sp)
    61002e2c:	45d000ef          	jal	ra,61003a88 <_vfiprintf_r>
    61002e30:	70a2                	ld	ra,40(sp)
    61002e32:	7402                	ld	s0,32(sp)
    61002e34:	6165                	addi	sp,sp,112
    61002e36:	8082                	ret

0000000061002e38 <_puts_r>:
    61002e38:	7179                	addi	sp,sp,-48
    61002e3a:	ec26                	sd	s1,24(sp)
    61002e3c:	e84a                	sd	s2,16(sp)
    61002e3e:	f406                	sd	ra,40(sp)
    61002e40:	f022                	sd	s0,32(sp)
    61002e42:	e44e                	sd	s3,8(sp)
    61002e44:	e052                	sd	s4,0(sp)
    61002e46:	84aa                	mv	s1,a0
    61002e48:	892e                	mv	s2,a1
    61002e4a:	c509                	beqz	a0,61002e54 <_puts_r+0x1c>
    61002e4c:	591c                	lw	a5,48(a0)
    61002e4e:	e399                	bnez	a5,61002e54 <_puts_r+0x1c>
    61002e50:	710000ef          	jal	ra,61003560 <__sinit>
    61002e54:	589c                	lw	a5,48(s1)
    61002e56:	6880                	ld	s0,16(s1)
    61002e58:	e781                	bnez	a5,61002e60 <_puts_r+0x28>
    61002e5a:	8526                	mv	a0,s1
    61002e5c:	704000ef          	jal	ra,61003560 <__sinit>
    61002e60:	00001797          	auipc	a5,0x1
    61002e64:	7d078793          	addi	a5,a5,2000 # 61004630 <__sf_fake_stdin>
    61002e68:	02f41f63          	bne	s0,a5,61002ea6 <_puts_r+0x6e>
    61002e6c:	6480                	ld	s0,8(s1)
    61002e6e:	01045783          	lhu	a5,16(s0)
    61002e72:	8ba1                	andi	a5,a5,8
    61002e74:	cba9                	beqz	a5,61002ec6 <_puts_r+0x8e>
    61002e76:	6c1c                	ld	a5,24(s0)
    61002e78:	c7b9                	beqz	a5,61002ec6 <_puts_r+0x8e>
    61002e7a:	59fd                	li	s3,-1
    61002e7c:	4a29                	li	s4,10
    61002e7e:	4458                	lw	a4,12(s0)
    61002e80:	00094583          	lbu	a1,0(s2)
    61002e84:	fff7079b          	addiw	a5,a4,-1
    61002e88:	873e                	mv	a4,a5
    61002e8a:	eda1                	bnez	a1,61002ee2 <_puts_r+0xaa>
    61002e8c:	c45c                	sw	a5,12(s0)
    61002e8e:	0807d163          	bgez	a5,61002f10 <_puts_r+0xd8>
    61002e92:	8622                	mv	a2,s0
    61002e94:	45a9                	li	a1,10
    61002e96:	8526                	mv	a0,s1
    61002e98:	224000ef          	jal	ra,610030bc <__swbuf_r>
    61002e9c:	57fd                	li	a5,-1
    61002e9e:	02f50963          	beq	a0,a5,61002ed0 <_puts_r+0x98>
    61002ea2:	4529                	li	a0,10
    61002ea4:	a03d                	j	61002ed2 <_puts_r+0x9a>
    61002ea6:	00001797          	auipc	a5,0x1
    61002eaa:	7c278793          	addi	a5,a5,1986 # 61004668 <__sf_fake_stdout>
    61002eae:	00f41463          	bne	s0,a5,61002eb6 <_puts_r+0x7e>
    61002eb2:	6880                	ld	s0,16(s1)
    61002eb4:	bf6d                	j	61002e6e <_puts_r+0x36>
    61002eb6:	00001797          	auipc	a5,0x1
    61002eba:	74278793          	addi	a5,a5,1858 # 610045f8 <__sf_fake_stderr>
    61002ebe:	faf418e3          	bne	s0,a5,61002e6e <_puts_r+0x36>
    61002ec2:	6c80                	ld	s0,24(s1)
    61002ec4:	b76d                	j	61002e6e <_puts_r+0x36>
    61002ec6:	85a2                	mv	a1,s0
    61002ec8:	8526                	mv	a0,s1
    61002eca:	2b8000ef          	jal	ra,61003182 <__swsetup_r>
    61002ece:	d555                	beqz	a0,61002e7a <_puts_r+0x42>
    61002ed0:	557d                	li	a0,-1
    61002ed2:	70a2                	ld	ra,40(sp)
    61002ed4:	7402                	ld	s0,32(sp)
    61002ed6:	64e2                	ld	s1,24(sp)
    61002ed8:	6942                	ld	s2,16(sp)
    61002eda:	69a2                	ld	s3,8(sp)
    61002edc:	6a02                	ld	s4,0(sp)
    61002ede:	6145                	addi	sp,sp,48
    61002ee0:	8082                	ret
    61002ee2:	c458                	sw	a4,12(s0)
    61002ee4:	0905                	addi	s2,s2,1
    61002ee6:	0007d763          	bgez	a5,61002ef4 <_puts_r+0xbc>
    61002eea:	5418                	lw	a4,40(s0)
    61002eec:	00e7cb63          	blt	a5,a4,61002f02 <_puts_r+0xca>
    61002ef0:	01458963          	beq	a1,s4,61002f02 <_puts_r+0xca>
    61002ef4:	601c                	ld	a5,0(s0)
    61002ef6:	00178713          	addi	a4,a5,1
    61002efa:	e018                	sd	a4,0(s0)
    61002efc:	00b78023          	sb	a1,0(a5)
    61002f00:	bfbd                	j	61002e7e <_puts_r+0x46>
    61002f02:	8622                	mv	a2,s0
    61002f04:	8526                	mv	a0,s1
    61002f06:	1b6000ef          	jal	ra,610030bc <__swbuf_r>
    61002f0a:	f7351ae3          	bne	a0,s3,61002e7e <_puts_r+0x46>
    61002f0e:	b7c9                	j	61002ed0 <_puts_r+0x98>
    61002f10:	601c                	ld	a5,0(s0)
    61002f12:	00178713          	addi	a4,a5,1
    61002f16:	e018                	sd	a4,0(s0)
    61002f18:	4729                	li	a4,10
    61002f1a:	00e78023          	sb	a4,0(a5)
    61002f1e:	b751                	j	61002ea2 <_puts_r+0x6a>

0000000061002f20 <puts>:
    61002f20:	85aa                	mv	a1,a0
    61002f22:	8101b503          	ld	a0,-2032(gp) # 610100c0 <_impure_ptr>
    61002f26:	bf09                	j	61002e38 <_puts_r>

0000000061002f28 <setvbuf>:
    61002f28:	715d                	addi	sp,sp,-80
    61002f2a:	e0a2                	sd	s0,64(sp)
    61002f2c:	fc26                	sd	s1,56(sp)
    61002f2e:	f84a                	sd	s2,48(sp)
    61002f30:	f44e                	sd	s3,40(sp)
    61002f32:	f052                	sd	s4,32(sp)
    61002f34:	e486                	sd	ra,72(sp)
    61002f36:	ec56                	sd	s5,24(sp)
    61002f38:	8101b983          	ld	s3,-2032(gp) # 610100c0 <_impure_ptr>
    61002f3c:	842a                	mv	s0,a0
    61002f3e:	892e                	mv	s2,a1
    61002f40:	8a32                	mv	s4,a2
    61002f42:	84b6                	mv	s1,a3
    61002f44:	00098863          	beqz	s3,61002f54 <setvbuf+0x2c>
    61002f48:	0309a783          	lw	a5,48(s3)
    61002f4c:	e781                	bnez	a5,61002f54 <setvbuf+0x2c>
    61002f4e:	854e                	mv	a0,s3
    61002f50:	610000ef          	jal	ra,61003560 <__sinit>
    61002f54:	00001797          	auipc	a5,0x1
    61002f58:	6dc78793          	addi	a5,a5,1756 # 61004630 <__sf_fake_stdin>
    61002f5c:	0cf41363          	bne	s0,a5,61003022 <setvbuf+0xfa>
    61002f60:	0089b403          	ld	s0,8(s3)
    61002f64:	4789                	li	a5,2
    61002f66:	00fa0a63          	beq	s4,a5,61002f7a <setvbuf+0x52>
    61002f6a:	4785                	li	a5,1
    61002f6c:	557d                	li	a0,-1
    61002f6e:	0b47e163          	bltu	a5,s4,61003010 <setvbuf+0xe8>
    61002f72:	0004879b          	sext.w	a5,s1
    61002f76:	0807cd63          	bltz	a5,61003010 <setvbuf+0xe8>
    61002f7a:	85a2                	mv	a1,s0
    61002f7c:	854e                	mv	a0,s3
    61002f7e:	4c4000ef          	jal	ra,61003442 <_fflush_r>
    61002f82:	702c                	ld	a1,96(s0)
    61002f84:	c991                	beqz	a1,61002f98 <setvbuf+0x70>
    61002f86:	07c40793          	addi	a5,s0,124
    61002f8a:	00f58563          	beq	a1,a5,61002f94 <setvbuf+0x6c>
    61002f8e:	854e                	mv	a0,s3
    61002f90:	0f9000ef          	jal	ra,61003888 <_free_r>
    61002f94:	06043023          	sd	zero,96(s0)
    61002f98:	01045783          	lhu	a5,16(s0)
    61002f9c:	02042423          	sw	zero,40(s0)
    61002fa0:	00042423          	sw	zero,8(s0)
    61002fa4:	0807f793          	andi	a5,a5,128
    61002fa8:	c789                	beqz	a5,61002fb2 <setvbuf+0x8a>
    61002faa:	6c0c                	ld	a1,24(s0)
    61002fac:	854e                	mv	a0,s3
    61002fae:	0db000ef          	jal	ra,61003888 <_free_r>
    61002fb2:	01045783          	lhu	a5,16(s0)
    61002fb6:	777d                	lui	a4,0xfffff
    61002fb8:	35c70713          	addi	a4,a4,860 # fffffffffffff35c <_sp+0xffffffff9efdf35c>
    61002fbc:	8ff9                	and	a5,a5,a4
    61002fbe:	00f41823          	sh	a5,16(s0)
    61002fc2:	4789                	li	a5,2
    61002fc4:	0efa0363          	beq	s4,a5,610030aa <setvbuf+0x182>
    61002fc8:	0054                	addi	a3,sp,4
    61002fca:	0030                	addi	a2,sp,8
    61002fcc:	85a2                	mv	a1,s0
    61002fce:	854e                	mv	a0,s3
    61002fd0:	708000ef          	jal	ra,610036d8 <__swhatbuf_r>
    61002fd4:	01045783          	lhu	a5,16(s0)
    61002fd8:	8d5d                	or	a0,a0,a5
    61002fda:	00a41823          	sh	a0,16(s0)
    61002fde:	e4a5                	bnez	s1,61003046 <setvbuf+0x11e>
    61002fe0:	64a2                	ld	s1,8(sp)
    61002fe2:	8526                	mv	a0,s1
    61002fe4:	7f2000ef          	jal	ra,610037d6 <malloc>
    61002fe8:	892a                	mv	s2,a0
    61002fea:	e94d                	bnez	a0,6100309c <setvbuf+0x174>
    61002fec:	6aa2                	ld	s5,8(sp)
    61002fee:	0a9a9163          	bne	s5,s1,61003090 <setvbuf+0x168>
    61002ff2:	557d                	li	a0,-1
    61002ff4:	01045783          	lhu	a5,16(s0)
    61002ff8:	00042623          	sw	zero,12(s0)
    61002ffc:	0027e793          	ori	a5,a5,2
    61003000:	00f41823          	sh	a5,16(s0)
    61003004:	07f40793          	addi	a5,s0,127
    61003008:	e01c                	sd	a5,0(s0)
    6100300a:	ec1c                	sd	a5,24(s0)
    6100300c:	4785                	li	a5,1
    6100300e:	d01c                	sw	a5,32(s0)
    61003010:	60a6                	ld	ra,72(sp)
    61003012:	6406                	ld	s0,64(sp)
    61003014:	74e2                	ld	s1,56(sp)
    61003016:	7942                	ld	s2,48(sp)
    61003018:	79a2                	ld	s3,40(sp)
    6100301a:	7a02                	ld	s4,32(sp)
    6100301c:	6ae2                	ld	s5,24(sp)
    6100301e:	6161                	addi	sp,sp,80
    61003020:	8082                	ret
    61003022:	00001797          	auipc	a5,0x1
    61003026:	64678793          	addi	a5,a5,1606 # 61004668 <__sf_fake_stdout>
    6100302a:	00f41563          	bne	s0,a5,61003034 <setvbuf+0x10c>
    6100302e:	0109b403          	ld	s0,16(s3)
    61003032:	bf0d                	j	61002f64 <setvbuf+0x3c>
    61003034:	00001797          	auipc	a5,0x1
    61003038:	5c478793          	addi	a5,a5,1476 # 610045f8 <__sf_fake_stderr>
    6100303c:	f2f414e3          	bne	s0,a5,61002f64 <setvbuf+0x3c>
    61003040:	0189b403          	ld	s0,24(s3)
    61003044:	b705                	j	61002f64 <setvbuf+0x3c>
    61003046:	f8090ee3          	beqz	s2,61002fe2 <setvbuf+0xba>
    6100304a:	0309a783          	lw	a5,48(s3)
    6100304e:	e781                	bnez	a5,61003056 <setvbuf+0x12e>
    61003050:	854e                	mv	a0,s3
    61003052:	50e000ef          	jal	ra,61003560 <__sinit>
    61003056:	4785                	li	a5,1
    61003058:	00fa1863          	bne	s4,a5,61003068 <setvbuf+0x140>
    6100305c:	01045783          	lhu	a5,16(s0)
    61003060:	0017e793          	ori	a5,a5,1
    61003064:	00f41823          	sh	a5,16(s0)
    61003068:	01045783          	lhu	a5,16(s0)
    6100306c:	2481                	sext.w	s1,s1
    6100306e:	01243023          	sd	s2,0(s0)
    61003072:	01243c23          	sd	s2,24(s0)
    61003076:	d004                	sw	s1,32(s0)
    61003078:	0087f713          	andi	a4,a5,8
    6100307c:	cb1d                	beqz	a4,610030b2 <setvbuf+0x18a>
    6100307e:	8b85                	andi	a5,a5,1
    61003080:	c79d                	beqz	a5,610030ae <setvbuf+0x186>
    61003082:	409004bb          	negw	s1,s1
    61003086:	00042623          	sw	zero,12(s0)
    6100308a:	d404                	sw	s1,40(s0)
    6100308c:	4501                	li	a0,0
    6100308e:	b749                	j	61003010 <setvbuf+0xe8>
    61003090:	8556                	mv	a0,s5
    61003092:	744000ef          	jal	ra,610037d6 <malloc>
    61003096:	892a                	mv	s2,a0
    61003098:	84d6                	mv	s1,s5
    6100309a:	dd21                	beqz	a0,61002ff2 <setvbuf+0xca>
    6100309c:	01045783          	lhu	a5,16(s0)
    610030a0:	0807e793          	ori	a5,a5,128
    610030a4:	00f41823          	sh	a5,16(s0)
    610030a8:	b74d                	j	6100304a <setvbuf+0x122>
    610030aa:	4501                	li	a0,0
    610030ac:	b7a1                	j	61002ff4 <setvbuf+0xcc>
    610030ae:	c444                	sw	s1,12(s0)
    610030b0:	bff1                	j	6100308c <setvbuf+0x164>
    610030b2:	00042623          	sw	zero,12(s0)
    610030b6:	bfd9                	j	6100308c <setvbuf+0x164>

00000000610030b8 <isatty>:
    610030b8:	972ff06f          	j	6100222a <_isatty>

00000000610030bc <__swbuf_r>:
    610030bc:	7179                	addi	sp,sp,-48
    610030be:	f022                	sd	s0,32(sp)
    610030c0:	ec26                	sd	s1,24(sp)
    610030c2:	e84a                	sd	s2,16(sp)
    610030c4:	f406                	sd	ra,40(sp)
    610030c6:	e44e                	sd	s3,8(sp)
    610030c8:	84aa                	mv	s1,a0
    610030ca:	892e                	mv	s2,a1
    610030cc:	8432                	mv	s0,a2
    610030ce:	c509                	beqz	a0,610030d8 <__swbuf_r+0x1c>
    610030d0:	591c                	lw	a5,48(a0)
    610030d2:	e399                	bnez	a5,610030d8 <__swbuf_r+0x1c>
    610030d4:	48c000ef          	jal	ra,61003560 <__sinit>
    610030d8:	00001797          	auipc	a5,0x1
    610030dc:	55878793          	addi	a5,a5,1368 # 61004630 <__sf_fake_stdin>
    610030e0:	06f41a63          	bne	s0,a5,61003154 <__swbuf_r+0x98>
    610030e4:	6480                	ld	s0,8(s1)
    610030e6:	541c                	lw	a5,40(s0)
    610030e8:	c45c                	sw	a5,12(s0)
    610030ea:	01045783          	lhu	a5,16(s0)
    610030ee:	8ba1                	andi	a5,a5,8
    610030f0:	c3d1                	beqz	a5,61003174 <__swbuf_r+0xb8>
    610030f2:	6c1c                	ld	a5,24(s0)
    610030f4:	c3c1                	beqz	a5,61003174 <__swbuf_r+0xb8>
    610030f6:	6c1c                	ld	a5,24(s0)
    610030f8:	6008                	ld	a0,0(s0)
    610030fa:	0ff97993          	zext.b	s3,s2
    610030fe:	894e                	mv	s2,s3
    61003100:	9d1d                	subw	a0,a0,a5
    61003102:	501c                	lw	a5,32(s0)
    61003104:	00f54763          	blt	a0,a5,61003112 <__swbuf_r+0x56>
    61003108:	85a2                	mv	a1,s0
    6100310a:	8526                	mv	a0,s1
    6100310c:	336000ef          	jal	ra,61003442 <_fflush_r>
    61003110:	e53d                	bnez	a0,6100317e <__swbuf_r+0xc2>
    61003112:	445c                	lw	a5,12(s0)
    61003114:	2505                	addiw	a0,a0,1
    61003116:	37fd                	addiw	a5,a5,-1
    61003118:	c45c                	sw	a5,12(s0)
    6100311a:	601c                	ld	a5,0(s0)
    6100311c:	00178713          	addi	a4,a5,1
    61003120:	e018                	sd	a4,0(s0)
    61003122:	01378023          	sb	s3,0(a5)
    61003126:	501c                	lw	a5,32(s0)
    61003128:	00a78963          	beq	a5,a0,6100313a <__swbuf_r+0x7e>
    6100312c:	01045783          	lhu	a5,16(s0)
    61003130:	8b85                	andi	a5,a5,1
    61003132:	cb89                	beqz	a5,61003144 <__swbuf_r+0x88>
    61003134:	47a9                	li	a5,10
    61003136:	00f91763          	bne	s2,a5,61003144 <__swbuf_r+0x88>
    6100313a:	85a2                	mv	a1,s0
    6100313c:	8526                	mv	a0,s1
    6100313e:	304000ef          	jal	ra,61003442 <_fflush_r>
    61003142:	ed15                	bnez	a0,6100317e <__swbuf_r+0xc2>
    61003144:	70a2                	ld	ra,40(sp)
    61003146:	7402                	ld	s0,32(sp)
    61003148:	64e2                	ld	s1,24(sp)
    6100314a:	69a2                	ld	s3,8(sp)
    6100314c:	854a                	mv	a0,s2
    6100314e:	6942                	ld	s2,16(sp)
    61003150:	6145                	addi	sp,sp,48
    61003152:	8082                	ret
    61003154:	00001797          	auipc	a5,0x1
    61003158:	51478793          	addi	a5,a5,1300 # 61004668 <__sf_fake_stdout>
    6100315c:	00f41463          	bne	s0,a5,61003164 <__swbuf_r+0xa8>
    61003160:	6880                	ld	s0,16(s1)
    61003162:	b751                	j	610030e6 <__swbuf_r+0x2a>
    61003164:	00001797          	auipc	a5,0x1
    61003168:	49478793          	addi	a5,a5,1172 # 610045f8 <__sf_fake_stderr>
    6100316c:	f6f41de3          	bne	s0,a5,610030e6 <__swbuf_r+0x2a>
    61003170:	6c80                	ld	s0,24(s1)
    61003172:	bf95                	j	610030e6 <__swbuf_r+0x2a>
    61003174:	85a2                	mv	a1,s0
    61003176:	8526                	mv	a0,s1
    61003178:	00a000ef          	jal	ra,61003182 <__swsetup_r>
    6100317c:	dd2d                	beqz	a0,610030f6 <__swbuf_r+0x3a>
    6100317e:	597d                	li	s2,-1
    61003180:	b7d1                	j	61003144 <__swbuf_r+0x88>

0000000061003182 <__swsetup_r>:
    61003182:	1101                	addi	sp,sp,-32
    61003184:	e822                	sd	s0,16(sp)
    61003186:	e426                	sd	s1,8(sp)
    61003188:	e04a                	sd	s2,0(sp)
    6100318a:	ec06                	sd	ra,24(sp)
    6100318c:	8101b483          	ld	s1,-2032(gp) # 610100c0 <_impure_ptr>
    61003190:	892a                	mv	s2,a0
    61003192:	842e                	mv	s0,a1
    61003194:	c491                	beqz	s1,610031a0 <__swsetup_r+0x1e>
    61003196:	589c                	lw	a5,48(s1)
    61003198:	e781                	bnez	a5,610031a0 <__swsetup_r+0x1e>
    6100319a:	8526                	mv	a0,s1
    6100319c:	3c4000ef          	jal	ra,61003560 <__sinit>
    610031a0:	00001797          	auipc	a5,0x1
    610031a4:	49078793          	addi	a5,a5,1168 # 61004630 <__sf_fake_stdin>
    610031a8:	02f41763          	bne	s0,a5,610031d6 <__swsetup_r+0x54>
    610031ac:	6480                	ld	s0,8(s1)
    610031ae:	01041783          	lh	a5,16(s0)
    610031b2:	03079713          	slli	a4,a5,0x30
    610031b6:	0087f693          	andi	a3,a5,8
    610031ba:	9341                	srli	a4,a4,0x30
    610031bc:	eab5                	bnez	a3,61003230 <__swsetup_r+0xae>
    610031be:	01077693          	andi	a3,a4,16
    610031c2:	ea95                	bnez	a3,610031f6 <__swsetup_r+0x74>
    610031c4:	4725                	li	a4,9
    610031c6:	00e92023          	sw	a4,0(s2)
    610031ca:	0407e793          	ori	a5,a5,64
    610031ce:	00f41823          	sh	a5,16(s0)
    610031d2:	557d                	li	a0,-1
    610031d4:	a045                	j	61003274 <__swsetup_r+0xf2>
    610031d6:	00001797          	auipc	a5,0x1
    610031da:	49278793          	addi	a5,a5,1170 # 61004668 <__sf_fake_stdout>
    610031de:	00f41463          	bne	s0,a5,610031e6 <__swsetup_r+0x64>
    610031e2:	6880                	ld	s0,16(s1)
    610031e4:	b7e9                	j	610031ae <__swsetup_r+0x2c>
    610031e6:	00001797          	auipc	a5,0x1
    610031ea:	41278793          	addi	a5,a5,1042 # 610045f8 <__sf_fake_stderr>
    610031ee:	fcf410e3          	bne	s0,a5,610031ae <__swsetup_r+0x2c>
    610031f2:	6c80                	ld	s0,24(s1)
    610031f4:	bf6d                	j	610031ae <__swsetup_r+0x2c>
    610031f6:	8b11                	andi	a4,a4,4
    610031f8:	c715                	beqz	a4,61003224 <__swsetup_r+0xa2>
    610031fa:	702c                	ld	a1,96(s0)
    610031fc:	c991                	beqz	a1,61003210 <__swsetup_r+0x8e>
    610031fe:	07c40793          	addi	a5,s0,124
    61003202:	00f58563          	beq	a1,a5,6100320c <__swsetup_r+0x8a>
    61003206:	854a                	mv	a0,s2
    61003208:	680000ef          	jal	ra,61003888 <_free_r>
    6100320c:	06043023          	sd	zero,96(s0)
    61003210:	01045783          	lhu	a5,16(s0)
    61003214:	00042423          	sw	zero,8(s0)
    61003218:	fdb7f793          	andi	a5,a5,-37
    6100321c:	00f41823          	sh	a5,16(s0)
    61003220:	6c1c                	ld	a5,24(s0)
    61003222:	e01c                	sd	a5,0(s0)
    61003224:	01045783          	lhu	a5,16(s0)
    61003228:	0087e793          	ori	a5,a5,8
    6100322c:	00f41823          	sh	a5,16(s0)
    61003230:	6c1c                	ld	a5,24(s0)
    61003232:	ef89                	bnez	a5,6100324c <__swsetup_r+0xca>
    61003234:	01045783          	lhu	a5,16(s0)
    61003238:	20000713          	li	a4,512
    6100323c:	2807f793          	andi	a5,a5,640
    61003240:	00e78663          	beq	a5,a4,6100324c <__swsetup_r+0xca>
    61003244:	85a2                	mv	a1,s0
    61003246:	854a                	mv	a0,s2
    61003248:	4ec000ef          	jal	ra,61003734 <__smakebuf_r>
    6100324c:	01041783          	lh	a5,16(s0)
    61003250:	03079713          	slli	a4,a5,0x30
    61003254:	0017f693          	andi	a3,a5,1
    61003258:	9341                	srli	a4,a4,0x30
    6100325a:	c29d                	beqz	a3,61003280 <__swsetup_r+0xfe>
    6100325c:	5014                	lw	a3,32(s0)
    6100325e:	00042623          	sw	zero,12(s0)
    61003262:	40d006bb          	negw	a3,a3
    61003266:	d414                	sw	a3,40(s0)
    61003268:	6c14                	ld	a3,24(s0)
    6100326a:	4501                	li	a0,0
    6100326c:	e681                	bnez	a3,61003274 <__swsetup_r+0xf2>
    6100326e:	08077713          	andi	a4,a4,128
    61003272:	ff21                	bnez	a4,610031ca <__swsetup_r+0x48>
    61003274:	60e2                	ld	ra,24(sp)
    61003276:	6442                	ld	s0,16(sp)
    61003278:	64a2                	ld	s1,8(sp)
    6100327a:	6902                	ld	s2,0(sp)
    6100327c:	6105                	addi	sp,sp,32
    6100327e:	8082                	ret
    61003280:	00277693          	andi	a3,a4,2
    61003284:	4601                	li	a2,0
    61003286:	e291                	bnez	a3,6100328a <__swsetup_r+0x108>
    61003288:	5010                	lw	a2,32(s0)
    6100328a:	c450                	sw	a2,12(s0)
    6100328c:	bff1                	j	61003268 <__swsetup_r+0xe6>

000000006100328e <__register_exitproc>:
    6100328e:	88aa                	mv	a7,a0
    61003290:	0000d517          	auipc	a0,0xd
    61003294:	e5050513          	addi	a0,a0,-432 # 610100e0 <_global_atexit>
    61003298:	611c                	ld	a5,0(a0)
    6100329a:	ef81                	bnez	a5,610032b2 <__register_exitproc+0x24>
    6100329c:	8f018713          	addi	a4,gp,-1808 # 610101a0 <_global_atexit0>
    610032a0:	e118                	sd	a4,0(a0)
    610032a2:	00000513          	li	a0,0
    610032a6:	87ba                	mv	a5,a4
    610032a8:	c509                	beqz	a0,610032b2 <__register_exitproc+0x24>
    610032aa:	611c                	ld	a5,0(a0)
    610032ac:	10f73823          	sd	a5,272(a4)
    610032b0:	87ba                	mv	a5,a4
    610032b2:	4798                	lw	a4,8(a5)
    610032b4:	487d                	li	a6,31
    610032b6:	557d                	li	a0,-1
    610032b8:	04e84763          	blt	a6,a4,61003306 <__register_exitproc+0x78>
    610032bc:	02088d63          	beqz	a7,610032f6 <__register_exitproc+0x68>
    610032c0:	1107b803          	ld	a6,272(a5)
    610032c4:	04080163          	beqz	a6,61003306 <__register_exitproc+0x78>
    610032c8:	00371513          	slli	a0,a4,0x3
    610032cc:	9542                	add	a0,a0,a6
    610032ce:	e110                	sd	a2,0(a0)
    610032d0:	20082303          	lw	t1,512(a6)
    610032d4:	4605                	li	a2,1
    610032d6:	00e6163b          	sllw	a2,a2,a4
    610032da:	00c36333          	or	t1,t1,a2
    610032de:	20682023          	sw	t1,512(a6)
    610032e2:	10d53023          	sd	a3,256(a0)
    610032e6:	4689                	li	a3,2
    610032e8:	00d89763          	bne	a7,a3,610032f6 <__register_exitproc+0x68>
    610032ec:	20482683          	lw	a3,516(a6)
    610032f0:	8e55                	or	a2,a2,a3
    610032f2:	20c82223          	sw	a2,516(a6)
    610032f6:	0017069b          	addiw	a3,a4,1
    610032fa:	0709                	addi	a4,a4,2
    610032fc:	070e                	slli	a4,a4,0x3
    610032fe:	c794                	sw	a3,8(a5)
    61003300:	97ba                	add	a5,a5,a4
    61003302:	e38c                	sd	a1,0(a5)
    61003304:	4501                	li	a0,0
    61003306:	8082                	ret

0000000061003308 <__sflush_r>:
    61003308:	0105d783          	lhu	a5,16(a1)
    6100330c:	7179                	addi	sp,sp,-48
    6100330e:	f022                	sd	s0,32(sp)
    61003310:	ec26                	sd	s1,24(sp)
    61003312:	f406                	sd	ra,40(sp)
    61003314:	e84a                	sd	s2,16(sp)
    61003316:	e44e                	sd	s3,8(sp)
    61003318:	0087f713          	andi	a4,a5,8
    6100331c:	84aa                	mv	s1,a0
    6100331e:	842e                	mv	s0,a1
    61003320:	ef69                	bnez	a4,610033fa <__sflush_r+0xf2>
    61003322:	4598                	lw	a4,8(a1)
    61003324:	00e04d63          	bgtz	a4,6100333e <__sflush_r+0x36>
    61003328:	5db8                	lw	a4,120(a1)
    6100332a:	00e04a63          	bgtz	a4,6100333e <__sflush_r+0x36>
    6100332e:	4501                	li	a0,0
    61003330:	70a2                	ld	ra,40(sp)
    61003332:	7402                	ld	s0,32(sp)
    61003334:	64e2                	ld	s1,24(sp)
    61003336:	6942                	ld	s2,16(sp)
    61003338:	69a2                	ld	s3,8(sp)
    6100333a:	6145                	addi	sp,sp,48
    6100333c:	8082                	ret
    6100333e:	6838                	ld	a4,80(s0)
    61003340:	d77d                	beqz	a4,6100332e <__sflush_r+0x26>
    61003342:	6685                	lui	a3,0x1
    61003344:	0004a903          	lw	s2,0(s1)
    61003348:	8ff5                	and	a5,a5,a3
    6100334a:	0004a023          	sw	zero,0(s1)
    6100334e:	cfa5                	beqz	a5,610033c6 <__sflush_r+0xbe>
    61003350:	6c50                	ld	a2,152(s0)
    61003352:	01045783          	lhu	a5,16(s0)
    61003356:	8b91                	andi	a5,a5,4
    61003358:	c799                	beqz	a5,61003366 <__sflush_r+0x5e>
    6100335a:	441c                	lw	a5,8(s0)
    6100335c:	8e1d                	sub	a2,a2,a5
    6100335e:	703c                	ld	a5,96(s0)
    61003360:	c399                	beqz	a5,61003366 <__sflush_r+0x5e>
    61003362:	5c3c                	lw	a5,120(s0)
    61003364:	8e1d                	sub	a2,a2,a5
    61003366:	683c                	ld	a5,80(s0)
    61003368:	7c0c                	ld	a1,56(s0)
    6100336a:	4681                	li	a3,0
    6100336c:	8526                	mv	a0,s1
    6100336e:	9782                	jalr	a5
    61003370:	57fd                	li	a5,-1
    61003372:	01045703          	lhu	a4,16(s0)
    61003376:	00f51d63          	bne	a0,a5,61003390 <__sflush_r+0x88>
    6100337a:	4094                	lw	a3,0(s1)
    6100337c:	47f5                	li	a5,29
    6100337e:	06d7e863          	bltu	a5,a3,610033ee <__sflush_r+0xe6>
    61003382:	204007b7          	lui	a5,0x20400
    61003386:	0785                	addi	a5,a5,1
    61003388:	00d7d7b3          	srl	a5,a5,a3
    6100338c:	8b85                	andi	a5,a5,1
    6100338e:	c3a5                	beqz	a5,610033ee <__sflush_r+0xe6>
    61003390:	6c1c                	ld	a5,24(s0)
    61003392:	00042423          	sw	zero,8(s0)
    61003396:	e01c                	sd	a5,0(s0)
    61003398:	6785                	lui	a5,0x1
    6100339a:	8f7d                	and	a4,a4,a5
    6100339c:	c719                	beqz	a4,610033aa <__sflush_r+0xa2>
    6100339e:	57fd                	li	a5,-1
    610033a0:	00f51463          	bne	a0,a5,610033a8 <__sflush_r+0xa0>
    610033a4:	409c                	lw	a5,0(s1)
    610033a6:	e391                	bnez	a5,610033aa <__sflush_r+0xa2>
    610033a8:	ec48                	sd	a0,152(s0)
    610033aa:	702c                	ld	a1,96(s0)
    610033ac:	0124a023          	sw	s2,0(s1)
    610033b0:	ddbd                	beqz	a1,6100332e <__sflush_r+0x26>
    610033b2:	07c40793          	addi	a5,s0,124
    610033b6:	00f58563          	beq	a1,a5,610033c0 <__sflush_r+0xb8>
    610033ba:	8526                	mv	a0,s1
    610033bc:	4cc000ef          	jal	ra,61003888 <_free_r>
    610033c0:	06043023          	sd	zero,96(s0)
    610033c4:	b7ad                	j	6100332e <__sflush_r+0x26>
    610033c6:	7c0c                	ld	a1,56(s0)
    610033c8:	4601                	li	a2,0
    610033ca:	4685                	li	a3,1
    610033cc:	8526                	mv	a0,s1
    610033ce:	9702                	jalr	a4
    610033d0:	57fd                	li	a5,-1
    610033d2:	862a                	mv	a2,a0
    610033d4:	f6f51fe3          	bne	a0,a5,61003352 <__sflush_r+0x4a>
    610033d8:	409c                	lw	a5,0(s1)
    610033da:	dfa5                	beqz	a5,61003352 <__sflush_r+0x4a>
    610033dc:	4775                	li	a4,29
    610033de:	00e78563          	beq	a5,a4,610033e8 <__sflush_r+0xe0>
    610033e2:	4759                	li	a4,22
    610033e4:	04e79463          	bne	a5,a4,6100342c <__sflush_r+0x124>
    610033e8:	0124a023          	sw	s2,0(s1)
    610033ec:	b789                	j	6100332e <__sflush_r+0x26>
    610033ee:	04076713          	ori	a4,a4,64
    610033f2:	00e41823          	sh	a4,16(s0)
    610033f6:	557d                	li	a0,-1
    610033f8:	bf25                	j	61003330 <__sflush_r+0x28>
    610033fa:	0185b983          	ld	s3,24(a1)
    610033fe:	f20988e3          	beqz	s3,6100332e <__sflush_r+0x26>
    61003402:	0005b903          	ld	s2,0(a1)
    61003406:	8b8d                	andi	a5,a5,3
    61003408:	0135b023          	sd	s3,0(a1)
    6100340c:	4139093b          	subw	s2,s2,s3
    61003410:	4701                	li	a4,0
    61003412:	e391                	bnez	a5,61003416 <__sflush_r+0x10e>
    61003414:	5198                	lw	a4,32(a1)
    61003416:	c458                	sw	a4,12(s0)
    61003418:	f1205be3          	blez	s2,6100332e <__sflush_r+0x26>
    6100341c:	643c                	ld	a5,72(s0)
    6100341e:	7c0c                	ld	a1,56(s0)
    61003420:	86ca                	mv	a3,s2
    61003422:	864e                	mv	a2,s3
    61003424:	8526                	mv	a0,s1
    61003426:	9782                	jalr	a5
    61003428:	00a04963          	bgtz	a0,6100343a <__sflush_r+0x132>
    6100342c:	01045783          	lhu	a5,16(s0)
    61003430:	0407e793          	ori	a5,a5,64
    61003434:	00f41823          	sh	a5,16(s0)
    61003438:	bf7d                	j	610033f6 <__sflush_r+0xee>
    6100343a:	99aa                	add	s3,s3,a0
    6100343c:	40a9093b          	subw	s2,s2,a0
    61003440:	bfe1                	j	61003418 <__sflush_r+0x110>

0000000061003442 <_fflush_r>:
    61003442:	6d9c                	ld	a5,24(a1)
    61003444:	c3a5                	beqz	a5,610034a4 <_fflush_r+0x62>
    61003446:	1101                	addi	sp,sp,-32
    61003448:	e822                	sd	s0,16(sp)
    6100344a:	ec06                	sd	ra,24(sp)
    6100344c:	842a                	mv	s0,a0
    6100344e:	c519                	beqz	a0,6100345c <_fflush_r+0x1a>
    61003450:	591c                	lw	a5,48(a0)
    61003452:	e789                	bnez	a5,6100345c <_fflush_r+0x1a>
    61003454:	e42e                	sd	a1,8(sp)
    61003456:	10a000ef          	jal	ra,61003560 <__sinit>
    6100345a:	65a2                	ld	a1,8(sp)
    6100345c:	00001797          	auipc	a5,0x1
    61003460:	1d478793          	addi	a5,a5,468 # 61004630 <__sf_fake_stdin>
    61003464:	00f59b63          	bne	a1,a5,6100347a <_fflush_r+0x38>
    61003468:	640c                	ld	a1,8(s0)
    6100346a:	01059783          	lh	a5,16(a1)
    6100346e:	c795                	beqz	a5,6100349a <_fflush_r+0x58>
    61003470:	8522                	mv	a0,s0
    61003472:	6442                	ld	s0,16(sp)
    61003474:	60e2                	ld	ra,24(sp)
    61003476:	6105                	addi	sp,sp,32
    61003478:	bd41                	j	61003308 <__sflush_r>
    6100347a:	00001797          	auipc	a5,0x1
    6100347e:	1ee78793          	addi	a5,a5,494 # 61004668 <__sf_fake_stdout>
    61003482:	00f59463          	bne	a1,a5,6100348a <_fflush_r+0x48>
    61003486:	680c                	ld	a1,16(s0)
    61003488:	b7cd                	j	6100346a <_fflush_r+0x28>
    6100348a:	00001797          	auipc	a5,0x1
    6100348e:	16e78793          	addi	a5,a5,366 # 610045f8 <__sf_fake_stderr>
    61003492:	fcf59ce3          	bne	a1,a5,6100346a <_fflush_r+0x28>
    61003496:	6c0c                	ld	a1,24(s0)
    61003498:	bfc9                	j	6100346a <_fflush_r+0x28>
    6100349a:	60e2                	ld	ra,24(sp)
    6100349c:	6442                	ld	s0,16(sp)
    6100349e:	4501                	li	a0,0
    610034a0:	6105                	addi	sp,sp,32
    610034a2:	8082                	ret
    610034a4:	4501                	li	a0,0
    610034a6:	8082                	ret

00000000610034a8 <std>:
    610034a8:	1141                	addi	sp,sp,-16
    610034aa:	e022                	sd	s0,0(sp)
    610034ac:	e406                	sd	ra,8(sp)
    610034ae:	842a                	mv	s0,a0
    610034b0:	00b51823          	sh	a1,16(a0)
    610034b4:	00c51923          	sh	a2,18(a0)
    610034b8:	00053023          	sd	zero,0(a0)
    610034bc:	00053423          	sd	zero,8(a0)
    610034c0:	0a052623          	sw	zero,172(a0)
    610034c4:	00053c23          	sd	zero,24(a0)
    610034c8:	02052023          	sw	zero,32(a0)
    610034cc:	02052423          	sw	zero,40(a0)
    610034d0:	4621                	li	a2,8
    610034d2:	4581                	li	a1,0
    610034d4:	0a450513          	addi	a0,a0,164
    610034d8:	306000ef          	jal	ra,610037de <memset>
    610034dc:	00001797          	auipc	a5,0x1
    610034e0:	c3e78793          	addi	a5,a5,-962 # 6100411a <__sread>
    610034e4:	e03c                	sd	a5,64(s0)
    610034e6:	00001797          	auipc	a5,0x1
    610034ea:	c6678793          	addi	a5,a5,-922 # 6100414c <__swrite>
    610034ee:	e43c                	sd	a5,72(s0)
    610034f0:	00001797          	auipc	a5,0x1
    610034f4:	cac78793          	addi	a5,a5,-852 # 6100419c <__sseek>
    610034f8:	e83c                	sd	a5,80(s0)
    610034fa:	00001797          	auipc	a5,0x1
    610034fe:	cda78793          	addi	a5,a5,-806 # 610041d4 <__sclose>
    61003502:	60a2                	ld	ra,8(sp)
    61003504:	fc00                	sd	s0,56(s0)
    61003506:	ec3c                	sd	a5,88(s0)
    61003508:	6402                	ld	s0,0(sp)
    6100350a:	0141                	addi	sp,sp,16
    6100350c:	8082                	ret

000000006100350e <_cleanup_r>:
    6100350e:	00000597          	auipc	a1,0x0
    61003512:	f3458593          	addi	a1,a1,-204 # 61003442 <_fflush_r>
    61003516:	aa99                	j	6100366c <_fwalk_reent>

0000000061003518 <__sfmoreglue>:
    61003518:	1101                	addi	sp,sp,-32
    6100351a:	e426                	sd	s1,8(sp)
    6100351c:	0b000613          	li	a2,176
    61003520:	fff5849b          	addiw	s1,a1,-1
    61003524:	02c484b3          	mul	s1,s1,a2
    61003528:	e04a                	sd	s2,0(sp)
    6100352a:	892e                	mv	s2,a1
    6100352c:	e822                	sd	s0,16(sp)
    6100352e:	ec06                	sd	ra,24(sp)
    61003530:	0c848593          	addi	a1,s1,200
    61003534:	3fa000ef          	jal	ra,6100392e <_malloc_r>
    61003538:	842a                	mv	s0,a0
    6100353a:	cd01                	beqz	a0,61003552 <__sfmoreglue+0x3a>
    6100353c:	00053023          	sd	zero,0(a0)
    61003540:	01252423          	sw	s2,8(a0)
    61003544:	0561                	addi	a0,a0,24
    61003546:	e808                	sd	a0,16(s0)
    61003548:	0b048613          	addi	a2,s1,176
    6100354c:	4581                	li	a1,0
    6100354e:	290000ef          	jal	ra,610037de <memset>
    61003552:	60e2                	ld	ra,24(sp)
    61003554:	8522                	mv	a0,s0
    61003556:	6442                	ld	s0,16(sp)
    61003558:	64a2                	ld	s1,8(sp)
    6100355a:	6902                	ld	s2,0(sp)
    6100355c:	6105                	addi	sp,sp,32
    6100355e:	8082                	ret

0000000061003560 <__sinit>:
    61003560:	591c                	lw	a5,48(a0)
    61003562:	e7bd                	bnez	a5,610035d0 <__sinit+0x70>
    61003564:	1141                	addi	sp,sp,-16
    61003566:	e022                	sd	s0,0(sp)
    61003568:	e406                	sd	ra,8(sp)
    6100356a:	00000797          	auipc	a5,0x0
    6100356e:	fa478793          	addi	a5,a5,-92 # 6100350e <_cleanup_r>
    61003572:	e53c                	sd	a5,72(a0)
    61003574:	08053023          	sd	zero,128(a0)
    61003578:	08052423          	sw	zero,136(a0)
    6100357c:	08053823          	sd	zero,144(a0)
    61003580:	8181b783          	ld	a5,-2024(gp) # 610100c8 <_global_impure_ptr>
    61003584:	842a                	mv	s0,a0
    61003586:	00f51463          	bne	a0,a5,6100358e <__sinit+0x2e>
    6100358a:	4785                	li	a5,1
    6100358c:	d91c                	sw	a5,48(a0)
    6100358e:	8522                	mv	a0,s0
    61003590:	042000ef          	jal	ra,610035d2 <__sfp>
    61003594:	e408                	sd	a0,8(s0)
    61003596:	8522                	mv	a0,s0
    61003598:	03a000ef          	jal	ra,610035d2 <__sfp>
    6100359c:	e808                	sd	a0,16(s0)
    6100359e:	8522                	mv	a0,s0
    610035a0:	032000ef          	jal	ra,610035d2 <__sfp>
    610035a4:	ec08                	sd	a0,24(s0)
    610035a6:	6408                	ld	a0,8(s0)
    610035a8:	4601                	li	a2,0
    610035aa:	4591                	li	a1,4
    610035ac:	efdff0ef          	jal	ra,610034a8 <std>
    610035b0:	6808                	ld	a0,16(s0)
    610035b2:	4605                	li	a2,1
    610035b4:	45a5                	li	a1,9
    610035b6:	ef3ff0ef          	jal	ra,610034a8 <std>
    610035ba:	6c08                	ld	a0,24(s0)
    610035bc:	4609                	li	a2,2
    610035be:	45c9                	li	a1,18
    610035c0:	ee9ff0ef          	jal	ra,610034a8 <std>
    610035c4:	4785                	li	a5,1
    610035c6:	60a2                	ld	ra,8(sp)
    610035c8:	d81c                	sw	a5,48(s0)
    610035ca:	6402                	ld	s0,0(sp)
    610035cc:	0141                	addi	sp,sp,16
    610035ce:	8082                	ret
    610035d0:	8082                	ret

00000000610035d2 <__sfp>:
    610035d2:	1101                	addi	sp,sp,-32
    610035d4:	e426                	sd	s1,8(sp)
    610035d6:	8181b483          	ld	s1,-2024(gp) # 610100c8 <_global_impure_ptr>
    610035da:	589c                	lw	a5,48(s1)
    610035dc:	e04a                	sd	s2,0(sp)
    610035de:	ec06                	sd	ra,24(sp)
    610035e0:	e822                	sd	s0,16(sp)
    610035e2:	892a                	mv	s2,a0
    610035e4:	e781                	bnez	a5,610035ec <__sfp+0x1a>
    610035e6:	8526                	mv	a0,s1
    610035e8:	f79ff0ef          	jal	ra,61003560 <__sinit>
    610035ec:	08048493          	addi	s1,s1,128
    610035f0:	6880                	ld	s0,16(s1)
    610035f2:	449c                	lw	a5,8(s1)
    610035f4:	37fd                	addiw	a5,a5,-1
    610035f6:	0007d663          	bgez	a5,61003602 <__sfp+0x30>
    610035fa:	609c                	ld	a5,0(s1)
    610035fc:	cfa9                	beqz	a5,61003656 <__sfp+0x84>
    610035fe:	6084                	ld	s1,0(s1)
    61003600:	bfc5                	j	610035f0 <__sfp+0x1e>
    61003602:	01041703          	lh	a4,16(s0)
    61003606:	e729                	bnez	a4,61003650 <__sfp+0x7e>
    61003608:	77c1                	lui	a5,0xffff0
    6100360a:	0785                	addi	a5,a5,1
    6100360c:	0a042623          	sw	zero,172(s0)
    61003610:	00043023          	sd	zero,0(s0)
    61003614:	00043423          	sd	zero,8(s0)
    61003618:	c81c                	sw	a5,16(s0)
    6100361a:	00043c23          	sd	zero,24(s0)
    6100361e:	02042023          	sw	zero,32(s0)
    61003622:	02042423          	sw	zero,40(s0)
    61003626:	4621                	li	a2,8
    61003628:	4581                	li	a1,0
    6100362a:	0a440513          	addi	a0,s0,164
    6100362e:	1b0000ef          	jal	ra,610037de <memset>
    61003632:	06043023          	sd	zero,96(s0)
    61003636:	06042423          	sw	zero,104(s0)
    6100363a:	08043023          	sd	zero,128(s0)
    6100363e:	08042423          	sw	zero,136(s0)
    61003642:	60e2                	ld	ra,24(sp)
    61003644:	8522                	mv	a0,s0
    61003646:	6442                	ld	s0,16(sp)
    61003648:	64a2                	ld	s1,8(sp)
    6100364a:	6902                	ld	s2,0(sp)
    6100364c:	6105                	addi	sp,sp,32
    6100364e:	8082                	ret
    61003650:	0b040413          	addi	s0,s0,176
    61003654:	b745                	j	610035f4 <__sfp+0x22>
    61003656:	4591                	li	a1,4
    61003658:	854a                	mv	a0,s2
    6100365a:	ebfff0ef          	jal	ra,61003518 <__sfmoreglue>
    6100365e:	e088                	sd	a0,0(s1)
    61003660:	842a                	mv	s0,a0
    61003662:	fd51                	bnez	a0,610035fe <__sfp+0x2c>
    61003664:	47b1                	li	a5,12
    61003666:	00f92023          	sw	a5,0(s2)
    6100366a:	bfe1                	j	61003642 <__sfp+0x70>

000000006100366c <_fwalk_reent>:
    6100366c:	715d                	addi	sp,sp,-80
    6100366e:	e0a2                	sd	s0,64(sp)
    61003670:	fc26                	sd	s1,56(sp)
    61003672:	f44e                	sd	s3,40(sp)
    61003674:	f052                	sd	s4,32(sp)
    61003676:	e85a                	sd	s6,16(sp)
    61003678:	e45e                	sd	s7,8(sp)
    6100367a:	e486                	sd	ra,72(sp)
    6100367c:	f84a                	sd	s2,48(sp)
    6100367e:	ec56                	sd	s5,24(sp)
    61003680:	89aa                	mv	s3,a0
    61003682:	8a2e                	mv	s4,a1
    61003684:	08050493          	addi	s1,a0,128
    61003688:	4401                	li	s0,0
    6100368a:	4b05                	li	s6,1
    6100368c:	5bfd                	li	s7,-1
    6100368e:	0104b903          	ld	s2,16(s1)
    61003692:	0084aa83          	lw	s5,8(s1)
    61003696:	3afd                	addiw	s5,s5,-1
    61003698:	020ad063          	bgez	s5,610036b8 <_fwalk_reent+0x4c>
    6100369c:	6084                	ld	s1,0(s1)
    6100369e:	f8e5                	bnez	s1,6100368e <_fwalk_reent+0x22>
    610036a0:	60a6                	ld	ra,72(sp)
    610036a2:	8522                	mv	a0,s0
    610036a4:	6406                	ld	s0,64(sp)
    610036a6:	74e2                	ld	s1,56(sp)
    610036a8:	7942                	ld	s2,48(sp)
    610036aa:	79a2                	ld	s3,40(sp)
    610036ac:	7a02                	ld	s4,32(sp)
    610036ae:	6ae2                	ld	s5,24(sp)
    610036b0:	6b42                	ld	s6,16(sp)
    610036b2:	6ba2                	ld	s7,8(sp)
    610036b4:	6161                	addi	sp,sp,80
    610036b6:	8082                	ret
    610036b8:	01095783          	lhu	a5,16(s2)
    610036bc:	00fb7b63          	bgeu	s6,a5,610036d2 <_fwalk_reent+0x66>
    610036c0:	01291783          	lh	a5,18(s2)
    610036c4:	01778763          	beq	a5,s7,610036d2 <_fwalk_reent+0x66>
    610036c8:	85ca                	mv	a1,s2
    610036ca:	854e                	mv	a0,s3
    610036cc:	9a02                	jalr	s4
    610036ce:	8c49                	or	s0,s0,a0
    610036d0:	2401                	sext.w	s0,s0
    610036d2:	0b090913          	addi	s2,s2,176
    610036d6:	b7c1                	j	61003696 <_fwalk_reent+0x2a>

00000000610036d8 <__swhatbuf_r>:
    610036d8:	7175                	addi	sp,sp,-144
    610036da:	f8ca                	sd	s2,112(sp)
    610036dc:	892e                	mv	s2,a1
    610036de:	01259583          	lh	a1,18(a1)
    610036e2:	e122                	sd	s0,128(sp)
    610036e4:	fca6                	sd	s1,120(sp)
    610036e6:	e506                	sd	ra,136(sp)
    610036e8:	8432                	mv	s0,a2
    610036ea:	84b6                	mv	s1,a3
    610036ec:	0005dc63          	bgez	a1,61003704 <__swhatbuf_r+0x2c>
    610036f0:	01091783          	lh	a5,16(s2)
    610036f4:	0004a023          	sw	zero,0(s1)
    610036f8:	0807f793          	andi	a5,a5,128
    610036fc:	e395                	bnez	a5,61003720 <__swhatbuf_r+0x48>
    610036fe:	40000793          	li	a5,1024
    61003702:	a00d                	j	61003724 <__swhatbuf_r+0x4c>
    61003704:	0030                	addi	a2,sp,8
    61003706:	339000ef          	jal	ra,6100423e <_fstat_r>
    6100370a:	fe0543e3          	bltz	a0,610036f0 <__swhatbuf_r+0x18>
    6100370e:	47b2                	lw	a5,12(sp)
    61003710:	673d                	lui	a4,0xf
    61003712:	8ff9                	and	a5,a5,a4
    61003714:	6709                	lui	a4,0x2
    61003716:	8f99                	sub	a5,a5,a4
    61003718:	0017b793          	seqz	a5,a5
    6100371c:	c09c                	sw	a5,0(s1)
    6100371e:	b7c5                	j	610036fe <__swhatbuf_r+0x26>
    61003720:	04000793          	li	a5,64
    61003724:	60aa                	ld	ra,136(sp)
    61003726:	e01c                	sd	a5,0(s0)
    61003728:	640a                	ld	s0,128(sp)
    6100372a:	74e6                	ld	s1,120(sp)
    6100372c:	7946                	ld	s2,112(sp)
    6100372e:	4501                	li	a0,0
    61003730:	6149                	addi	sp,sp,144
    61003732:	8082                	ret

0000000061003734 <__smakebuf_r>:
    61003734:	0105d783          	lhu	a5,16(a1)
    61003738:	7179                	addi	sp,sp,-48
    6100373a:	f022                	sd	s0,32(sp)
    6100373c:	f406                	sd	ra,40(sp)
    6100373e:	ec26                	sd	s1,24(sp)
    61003740:	e84a                	sd	s2,16(sp)
    61003742:	8b89                	andi	a5,a5,2
    61003744:	842e                	mv	s0,a1
    61003746:	cf89                	beqz	a5,61003760 <__smakebuf_r+0x2c>
    61003748:	07f40793          	addi	a5,s0,127
    6100374c:	e01c                	sd	a5,0(s0)
    6100374e:	ec1c                	sd	a5,24(s0)
    61003750:	4785                	li	a5,1
    61003752:	d01c                	sw	a5,32(s0)
    61003754:	70a2                	ld	ra,40(sp)
    61003756:	7402                	ld	s0,32(sp)
    61003758:	64e2                	ld	s1,24(sp)
    6100375a:	6942                	ld	s2,16(sp)
    6100375c:	6145                	addi	sp,sp,48
    6100375e:	8082                	ret
    61003760:	0054                	addi	a3,sp,4
    61003762:	0030                	addi	a2,sp,8
    61003764:	892a                	mv	s2,a0
    61003766:	f73ff0ef          	jal	ra,610036d8 <__swhatbuf_r>
    6100376a:	65a2                	ld	a1,8(sp)
    6100376c:	84aa                	mv	s1,a0
    6100376e:	854a                	mv	a0,s2
    61003770:	1be000ef          	jal	ra,6100392e <_malloc_r>
    61003774:	ed01                	bnez	a0,6100378c <__smakebuf_r+0x58>
    61003776:	01041783          	lh	a5,16(s0)
    6100377a:	2007f713          	andi	a4,a5,512
    6100377e:	fb79                	bnez	a4,61003754 <__smakebuf_r+0x20>
    61003780:	9bf1                	andi	a5,a5,-4
    61003782:	0027e793          	ori	a5,a5,2
    61003786:	00f41823          	sh	a5,16(s0)
    6100378a:	bf7d                	j	61003748 <__smakebuf_r+0x14>
    6100378c:	00000797          	auipc	a5,0x0
    61003790:	d8278793          	addi	a5,a5,-638 # 6100350e <_cleanup_r>
    61003794:	04f93423          	sd	a5,72(s2)
    61003798:	01045783          	lhu	a5,16(s0)
    6100379c:	e008                	sd	a0,0(s0)
    6100379e:	ec08                	sd	a0,24(s0)
    610037a0:	0807e793          	ori	a5,a5,128
    610037a4:	00f41823          	sh	a5,16(s0)
    610037a8:	67a2                	ld	a5,8(sp)
    610037aa:	d01c                	sw	a5,32(s0)
    610037ac:	4792                	lw	a5,4(sp)
    610037ae:	cf91                	beqz	a5,610037ca <__smakebuf_r+0x96>
    610037b0:	01241583          	lh	a1,18(s0)
    610037b4:	854a                	mv	a0,s2
    610037b6:	2bb000ef          	jal	ra,61004270 <_isatty_r>
    610037ba:	c901                	beqz	a0,610037ca <__smakebuf_r+0x96>
    610037bc:	01045783          	lhu	a5,16(s0)
    610037c0:	9bf1                	andi	a5,a5,-4
    610037c2:	0017e793          	ori	a5,a5,1
    610037c6:	00f41823          	sh	a5,16(s0)
    610037ca:	01045503          	lhu	a0,16(s0)
    610037ce:	8cc9                	or	s1,s1,a0
    610037d0:	00941823          	sh	s1,16(s0)
    610037d4:	b741                	j	61003754 <__smakebuf_r+0x20>

00000000610037d6 <malloc>:
    610037d6:	85aa                	mv	a1,a0
    610037d8:	8101b503          	ld	a0,-2032(gp) # 610100c0 <_impure_ptr>
    610037dc:	aa89                	j	6100392e <_malloc_r>

00000000610037de <memset>:
    610037de:	433d                	li	t1,15
    610037e0:	872a                	mv	a4,a0
    610037e2:	02c37163          	bgeu	t1,a2,61003804 <memset+0x26>
    610037e6:	00f77793          	andi	a5,a4,15
    610037ea:	e3c1                	bnez	a5,6100386a <memset+0x8c>
    610037ec:	e1bd                	bnez	a1,61003852 <memset+0x74>
    610037ee:	ff067693          	andi	a3,a2,-16
    610037f2:	8a3d                	andi	a2,a2,15
    610037f4:	96ba                	add	a3,a3,a4
    610037f6:	e30c                	sd	a1,0(a4)
    610037f8:	e70c                	sd	a1,8(a4)
    610037fa:	0741                	addi	a4,a4,16
    610037fc:	fed76de3          	bltu	a4,a3,610037f6 <memset+0x18>
    61003800:	e211                	bnez	a2,61003804 <memset+0x26>
    61003802:	8082                	ret
    61003804:	40c306b3          	sub	a3,t1,a2
    61003808:	068a                	slli	a3,a3,0x2
    6100380a:	00000297          	auipc	t0,0x0
    6100380e:	9696                	add	a3,a3,t0
    61003810:	00a68067          	jr	10(a3) # 100a <__stack_size+0x80a>
    61003814:	00b70723          	sb	a1,14(a4) # 200e <__stack_size+0x180e>
    61003818:	00b706a3          	sb	a1,13(a4)
    6100381c:	00b70623          	sb	a1,12(a4)
    61003820:	00b705a3          	sb	a1,11(a4)
    61003824:	00b70523          	sb	a1,10(a4)
    61003828:	00b704a3          	sb	a1,9(a4)
    6100382c:	00b70423          	sb	a1,8(a4)
    61003830:	00b703a3          	sb	a1,7(a4)
    61003834:	00b70323          	sb	a1,6(a4)
    61003838:	00b702a3          	sb	a1,5(a4)
    6100383c:	00b70223          	sb	a1,4(a4)
    61003840:	00b701a3          	sb	a1,3(a4)
    61003844:	00b70123          	sb	a1,2(a4)
    61003848:	00b700a3          	sb	a1,1(a4)
    6100384c:	00b70023          	sb	a1,0(a4)
    61003850:	8082                	ret
    61003852:	0ff5f593          	zext.b	a1,a1
    61003856:	00859693          	slli	a3,a1,0x8
    6100385a:	8dd5                	or	a1,a1,a3
    6100385c:	01059693          	slli	a3,a1,0x10
    61003860:	8dd5                	or	a1,a1,a3
    61003862:	02059693          	slli	a3,a1,0x20
    61003866:	8dd5                	or	a1,a1,a3
    61003868:	b759                	j	610037ee <memset+0x10>
    6100386a:	00279693          	slli	a3,a5,0x2
    6100386e:	00000297          	auipc	t0,0x0
    61003872:	9696                	add	a3,a3,t0
    61003874:	8286                	mv	t0,ra
    61003876:	fa2680e7          	jalr	-94(a3)
    6100387a:	8096                	mv	ra,t0
    6100387c:	17c1                	addi	a5,a5,-16
    6100387e:	8f1d                	sub	a4,a4,a5
    61003880:	963e                	add	a2,a2,a5
